Archive member included to satisfy reference by file (symbol)

/opt/gcc-arm-none-eabi-9-2019-q4-major/bin/../lib/gcc/arm-none-eabi/9.2.1/thumb/v7e-m+fp/hard//libgcc.a(_arm_addsubdf3.o)
                              /tmp/firmware.elf.fkNs2M.ltrans2.ltrans.o (__aeabi_f2d)
/opt/gcc-arm-none-eabi-9-2019-q4-major/bin/../lib/gcc/arm-none-eabi/9.2.1/thumb/v7e-m+fp/hard//libgcc.a(_arm_truncdfsf2.o)
                              /tmp/firmware.elf.fkNs2M.ltrans2.ltrans.o (__aeabi_d2f)
/opt/gcc-arm-none-eabi-9-2019-q4-major/bin/../lib/gcc/arm-none-eabi/9.2.1/thumb/v7e-m+fp/hard//libgcc.a(_popcountsi2.o)
                              /tmp/firmware.elf.fkNs2M.ltrans0.ltrans.o (__popcountsi2)

Allocating common symbols
Common symbol       size              file

mp_state_ctx        0x2a4             /tmp/firmware.elf.fkNs2M.ltrans0.ltrans.o
wdt_starve          0x1               build-pinetime-s132/drivers/wdt.o (symbol from plugin)

Memory Configuration

Name             Origin             Length             Attributes
FLASH_TEXT       0x0000000000026000 0x0000000000052000 xr
RAM              0x00000000200039e0 0x000000000000c620 xrw
*default*        0x0000000000000000 0xffffffffffffffff

Linker script and memory map

LOAD /tmp/firmware.elf.fkNs2M.ltrans0.ltrans.o
LOAD /tmp/firmware.elf.fkNs2M.ltrans1.ltrans.o
LOAD /tmp/firmware.elf.fkNs2M.ltrans2.ltrans.o
LOAD /tmp/firmware.elf.fkNs2M.ltrans3.ltrans.o
LOAD /tmp/firmware.elf.fkNs2M.ltrans4.ltrans.o
LOAD /tmp/firmware.elf.fkNs2M.ltrans5.ltrans.o
LOAD /tmp/cc93ME0M.debug.temp.o
LOAD /tmp/cce4P40N.debug.temp.o
LOAD /tmp/ccUShPpQ.debug.temp.o
LOAD /tmp/cceFSu6P.debug.temp.o
LOAD /tmp/ccdzT4VM.debug.temp.o
LOAD /tmp/ccNViw3Q.debug.temp.o
LOAD /tmp/ccaeSOVO.debug.temp.o
LOAD /tmp/ccKvZ7vP.debug.temp.o
LOAD /tmp/ccICjyfQ.debug.temp.o
LOAD /tmp/ccn2vtnQ.debug.temp.o
LOAD /tmp/ccjVtRPQ.debug.temp.o
LOAD /tmp/ccDq2BXN.debug.temp.o
LOAD /tmp/cciUpSSM.debug.temp.o
LOAD /tmp/ccZn2DtO.debug.temp.o
LOAD /tmp/ccmIpRtR.debug.temp.o
LOAD /tmp/ccP2KyrR.debug.temp.o
LOAD /tmp/ccv6jvYM.debug.temp.o
LOAD /tmp/cceQx5jN.debug.temp.o
LOAD /tmp/cc28lXzN.debug.temp.o
LOAD /tmp/ccZ3gIEQ.debug.temp.o
LOAD /tmp/ccjCKAPP.debug.temp.o
LOAD /tmp/cc4FifzO.debug.temp.o
LOAD /tmp/ccnVoEHP.debug.temp.o
LOAD /tmp/ccx7QyUQ.debug.temp.o
LOAD /tmp/ccpng4nR.debug.temp.o
LOAD /tmp/cc3Z3kZO.debug.temp.o
LOAD /tmp/ccc6wqHO.debug.temp.o
LOAD /tmp/ccOHxoqO.debug.temp.o
LOAD /tmp/cc1LyLhP.debug.temp.o
LOAD /tmp/ccDU7MoN.debug.temp.o
LOAD /tmp/cc0B9mKN.debug.temp.o
LOAD /tmp/ccuSjZDO.debug.temp.o
LOAD /tmp/cckn69GQ.debug.temp.o
LOAD /tmp/ccxjmsBQ.debug.temp.o
LOAD /tmp/ccDNtTuO.debug.temp.o
LOAD /tmp/ccv54H7M.debug.temp.o
LOAD /tmp/ccmUAT5N.debug.temp.o
LOAD /tmp/ccy8zpVP.debug.temp.o
LOAD /tmp/ccHUzH7M.debug.temp.o
LOAD /tmp/ccUada5O.debug.temp.o
LOAD /tmp/ccPnOOEQ.debug.temp.o
LOAD /tmp/ccw9RqrO.debug.temp.o
LOAD /tmp/ccipaprO.debug.temp.o
LOAD /tmp/ccaKT8oO.debug.temp.o
LOAD /tmp/ccT4y8hN.debug.temp.o
LOAD /tmp/ccqme5fQ.debug.temp.o
LOAD /tmp/ccYYwCaO.debug.temp.o
LOAD /tmp/ccQwFyWM.debug.temp.o
LOAD /tmp/ccdyEzJQ.debug.temp.o
LOAD /tmp/ccYcJ1uO.debug.temp.o
LOAD /tmp/ccwj3EXM.debug.temp.o
LOAD /tmp/ccJaTFqR.debug.temp.o
LOAD /tmp/ccjWW6jP.debug.temp.o
LOAD /tmp/ccaW2ebN.debug.temp.o
LOAD /tmp/ccAVqDDN.debug.temp.o
LOAD /tmp/ccwPhI8O.debug.temp.o
LOAD /tmp/cc1J15UO.debug.temp.o
LOAD /tmp/cc1RzNSO.debug.temp.o
LOAD /tmp/cc0hh2tR.debug.temp.o
LOAD /tmp/cc4iH1VN.debug.temp.o
LOAD /tmp/ccKPVk0P.debug.temp.o
LOAD /tmp/cce9YhTM.debug.temp.o
LOAD /tmp/cc3e7NcQ.debug.temp.o
LOAD /tmp/ccCXvMcQ.debug.temp.o
LOAD /tmp/cckMcd6N.debug.temp.o
LOAD /tmp/ccIp6pbN.debug.temp.o
LOAD /tmp/ccidzDqO.debug.temp.o
LOAD /tmp/cc6efsOO.debug.temp.o
LOAD /tmp/ccXQU4lO.debug.temp.o
LOAD /tmp/ccXif2FN.debug.temp.o
LOAD /tmp/ccS27wDP.debug.temp.o
LOAD /tmp/ccNpM16P.debug.temp.o
LOAD /tmp/ccTAPjjN.debug.temp.o
LOAD /tmp/cc1vPN6M.debug.temp.o
LOAD /tmp/ccOCKUBO.debug.temp.o
LOAD /tmp/ccVOOObQ.debug.temp.o
LOAD /tmp/ccRyGcYP.debug.temp.o
LOAD /tmp/ccAHAs0P.debug.temp.o
LOAD /tmp/cczhehoQ.debug.temp.o
LOAD /tmp/ccug3Y4P.debug.temp.o
LOAD /tmp/ccD7AYUN.debug.temp.o
LOAD /tmp/ccVuAxUM.debug.temp.o
LOAD /tmp/cc5QxV9Q.debug.temp.o
LOAD /tmp/ccth2sNO.debug.temp.o
LOAD /tmp/ccoslknO.debug.temp.o
LOAD /tmp/ccwx3yYQ.debug.temp.o
LOAD /tmp/ccMROwiQ.debug.temp.o
LOAD /tmp/ccL5l9PP.debug.temp.o
LOAD /tmp/cccrSAVM.debug.temp.o
LOAD /tmp/cc8xmSIO.debug.temp.o
LOAD /tmp/cc7VHQ0N.debug.temp.o
LOAD /tmp/cc16sUoR.debug.temp.o
LOAD /tmp/cctE6zkP.debug.temp.o
LOAD /tmp/cc1oHAkP.debug.temp.o
LOAD /tmp/ccKnhw8P.debug.temp.o
LOAD /tmp/cc5X5dPP.debug.temp.o
LOAD /tmp/cczm1rvO.debug.temp.o
LOAD /tmp/ccW9YBSP.debug.temp.o
LOAD /tmp/cc6VMd1O.debug.temp.o
LOAD /tmp/ccPWQ7vN.debug.temp.o
LOAD /tmp/ccypQDAN.debug.temp.o
LOAD /tmp/ccKxur6N.debug.temp.o
LOAD /tmp/ccPs46iR.debug.temp.o
LOAD /tmp/ccr7Z6RO.debug.temp.o
LOAD /tmp/cciyPruR.debug.temp.o
LOAD /tmp/ccwuuBFO.debug.temp.o
LOAD /tmp/ccpNQIiN.debug.temp.o
LOAD /tmp/ccdHWoPP.debug.temp.o
LOAD /tmp/ccRdgplO.debug.temp.o
LOAD /tmp/ccuY66MP.debug.temp.o
LOAD /tmp/cc6kuLSP.debug.temp.o
LOAD /tmp/ccvR7UzQ.debug.temp.o
LOAD /tmp/ccPM3KyQ.debug.temp.o
LOAD /tmp/ccwgpoMQ.debug.temp.o
LOAD /tmp/ccyU1gXP.debug.temp.o
LOAD /tmp/ccBDI6dN.debug.temp.o
LOAD /tmp/ccj5fwyN.debug.temp.o
LOAD /tmp/ccNESa8O.debug.temp.o
LOAD /tmp/cc7zVLZN.debug.temp.o
LOAD /tmp/ccALQBuR.debug.temp.o
LOAD /tmp/ccfV09NP.debug.temp.o
LOAD /tmp/ccfPKSmP.debug.temp.o
LOAD /tmp/ccNugVSN.debug.temp.o
LOAD /tmp/ccpRD0ZN.debug.temp.o
LOAD /tmp/ccedRtwN.debug.temp.o
LOAD /tmp/ccGwJxvQ.debug.temp.o
LOAD /tmp/ccXq4xgN.debug.temp.o
LOAD /tmp/ccAtTFNQ.debug.temp.o
LOAD /tmp/cc06OU7N.debug.temp.o
LOAD /tmp/ccj5yFtR.debug.temp.o
LOAD /tmp/ccuhjPTM.debug.temp.o
LOAD /tmp/ccHFr8ZQ.debug.temp.o
LOAD /tmp/cc3Ncc7O.debug.temp.o
LOAD /tmp/cc7x5gCQ.debug.temp.o
LOAD /tmp/ccResWAN.debug.temp.o
LOAD /tmp/cc4tSOhQ.debug.temp.o
LOAD /tmp/ccpbqx8M.debug.temp.o
LOAD /tmp/cctldAmO.debug.temp.o
LOAD /tmp/ccf9RJ3O.debug.temp.o
LOAD /tmp/ccdE9HHN.debug.temp.o
LOAD /tmp/ccI1LqtQ.debug.temp.o
LOAD /tmp/ccA9E6eR.debug.temp.o
LOAD /tmp/ccgAmPGN.debug.temp.o
LOAD /tmp/ccB9OaoR.debug.temp.o
LOAD /tmp/ccU4Hp4P.debug.temp.o
LOAD /tmp/ccvJdajQ.debug.temp.o
LOAD /tmp/cciArTWQ.debug.temp.o
LOAD /tmp/ccgRgpqR.debug.temp.o
LOAD /tmp/ccz7dJaP.debug.temp.o
LOAD /tmp/ccbk495O.debug.temp.o
LOAD /tmp/cc8BBNUO.debug.temp.o
LOAD /tmp/ccAZ75iQ.debug.temp.o
LOAD /tmp/ccxhUVaN.debug.temp.o
LOAD /tmp/ccnZejDN.debug.temp.o
LOAD /tmp/cc0KeHOP.debug.temp.o
LOAD /tmp/cctNpjhO.debug.temp.o
LOAD /tmp/ccEcqO4N.debug.temp.o
LOAD /tmp/ccXvjJQM.debug.temp.o
LOAD /tmp/ccGyCV5N.debug.temp.o
LOAD /tmp/cc1a1k4M.debug.temp.o
LOAD /tmp/ccOfj2WQ.debug.temp.o
LOAD /tmp/ccfVgKtO.debug.temp.o
LOAD /tmp/ccmg64uR.debug.temp.o
LOAD /tmp/ccuqU33O.debug.temp.o
LOAD /tmp/ccawfiAQ.debug.temp.o
LOAD /tmp/ccR1dmiO.debug.temp.o
LOAD /tmp/cckAj23O.debug.temp.o
LOAD /tmp/cc1WLeyO.debug.temp.o
LOAD /tmp/ccsbbpwP.debug.temp.o
LOAD /tmp/ccBBQ5XQ.debug.temp.o
LOAD /tmp/ccgwoJjO.debug.temp.o
LOAD /tmp/ccDN8JUN.debug.temp.o
LOAD /tmp/cc7bPZgN.debug.temp.o
LOAD /tmp/cc47GgZN.debug.temp.o
LOAD /tmp/ccOjtzJQ.debug.temp.o
LOAD /tmp/ccGrETyP.debug.temp.o
LOAD /tmp/cc4Gt1kR.debug.temp.o
LOAD /tmp/ccGT1YiP.debug.temp.o
LOAD /tmp/ccJFyL3N.debug.temp.o
LOAD /tmp/cckPmVlO.debug.temp.o
LOAD /tmp/ccJ19WxN.debug.temp.o
LOAD /tmp/ccNGoTFN.debug.temp.o
LOAD /tmp/cc0uzbvR.debug.temp.o
LOAD /tmp/ccMc2upR.debug.temp.o
LOAD /tmp/ccT6OGsO.debug.temp.o
LOAD /tmp/ccBRuSgN.debug.temp.o
LOAD /tmp/cc6JDLzO.debug.temp.o
LOAD /tmp/ccymIGRQ.debug.temp.o
LOAD /tmp/ccCWJT1Q.debug.temp.o
LOAD /tmp/ccA2itiQ.debug.temp.o
LOAD /tmp/ccUwCtsN.debug.temp.o
LOAD /tmp/ccGSjh5Q.debug.temp.o
LOAD /tmp/ccf8ZagQ.debug.temp.o
LOAD /tmp/ccqyczSN.debug.temp.o
LOAD /tmp/cc74KfzN.debug.temp.o
LOAD /tmp/cciAUobN.debug.temp.o
LOAD /tmp/ccLPJUaR.debug.temp.o
LOAD /tmp/cc1SsG0Q.debug.temp.o
LOAD /tmp/cciTjzbQ.debug.temp.o
LOAD /tmp/cc9O5q5O.debug.temp.o
LOAD /tmp/cc9h465N.debug.temp.o
LOAD /tmp/ccu7fsTM.debug.temp.o
LOAD /tmp/ccqxcZtQ.debug.temp.o
LOAD /tmp/ccrHBPMP.debug.temp.o
LOAD /tmp/cc12wz6Q.debug.temp.o
LOAD /tmp/ccyrgcuO.debug.temp.o
LOAD /tmp/ccf9BdLO.debug.temp.o
LOAD /tmp/ccLHJqVO.debug.temp.o
LOAD /tmp/ccdHbTLN.debug.temp.o
LOAD /tmp/cc1JhZgP.debug.temp.o
LOAD /tmp/ccHlW1nN.debug.temp.o
LOAD /tmp/cc0yaw1P.debug.temp.o
LOAD /tmp/ccqUU94N.debug.temp.o
LOAD /tmp/ccXkuJlN.debug.temp.o
LOAD /tmp/ccRnRq2M.debug.temp.o
LOAD /tmp/ccKcOpSP.debug.temp.o
LOAD /tmp/ccb45OQO.debug.temp.o
LOAD /tmp/ccbkj4XP.debug.temp.o
LOAD /tmp/ccj2WLnR.debug.temp.o
LOAD /tmp/ccl2gPpO.debug.temp.o
LOAD /tmp/ccIYB5LN.debug.temp.o
LOAD /tmp/ccJ59ocR.debug.temp.o
LOAD /tmp/cc8aQg6P.debug.temp.o
LOAD /tmp/cc54DH6Q.debug.temp.o
LOAD /tmp/cckZ5btO.debug.temp.o
LOAD /tmp/ccoszf1O.debug.temp.o
LOAD /tmp/cco1VkpN.debug.temp.o
LOAD /tmp/cciJxS9N.debug.temp.o
LOAD /tmp/ccQki8gP.debug.temp.o
LOAD /tmp/ccd3yHxO.debug.temp.o
LOAD /tmp/ccs6EbKO.debug.temp.o
LOAD /tmp/cci7VVJQ.debug.temp.o
LOAD /tmp/ccW1pTsQ.debug.temp.o
LOAD /tmp/cctJtCFO.debug.temp.o
LOAD /tmp/ccxpOjNQ.debug.temp.o
LOAD /tmp/ccQ7MHpO.debug.temp.o
LOAD /tmp/ccw6P6bQ.debug.temp.o
LOAD build-pinetime-s132/py/nlrx86.o
LOAD build-pinetime-s132/py/nlrx64.o
LOAD build-pinetime-s132/py/nlrthumb.o
LOAD build-pinetime-s132/py/nlrpowerpc.o
LOAD build-pinetime-s132/py/nlrxtensa.o
LOAD build-pinetime-s132/py/nlrsetjmp.o
LOAD /opt/gcc-arm-none-eabi-9-2019-q4-major/bin/../lib/gcc/arm-none-eabi/9.2.1/thumb/v7e-m+fp/hard//libgcc.a
                0x0000000000078000                _flash_size = 0x78000
                0x0000000000010000                _ram_size = 0x10000
                0x0000000000000000                _fs_size = 0x0
                0x0000000000002000                _stack_size = 0x2000
                0x0000000000008000                _minimum_heap_size = 0x8000
                0x0000000000026000                _sd_size = 0x26000
                0x00000000000039c0                _sd_ram = 0x39c0
                0x0000000000026000                _sd_size = DEFINED (_sd_size)?_sd_size:0x0
                0x00000000000039c0                _sd_ram = DEFINED (_sd_ram)?_sd_ram:0x0
                0x0000000000000020                _pnvram = 0x20
                0x0000000000000000                _fs_size = DEFINED (_fs_size)?_fs_size:0x10000
                0x0000000000052000                _app_size = ((_flash_size - _sd_size) - _fs_size)
                0x0000000000026000                _app_start = _sd_size
                0x0000000000078000                _fs_start = (_sd_size + _app_size)
                0x0000000000078000                _fs_end = (_fs_start + _fs_size)
                0x00000000200039e0                _app_ram_start = ((0x20000000 + _sd_ram) + _pnvram)
                0x000000000000c620                _app_ram_size = ((_ram_size - _sd_ram) - _pnvram)
                0x0000000020004188                _heap_start = _ebss
                0x000000002000e000                _heap_end = (_ram_end - _stack_size)
                0x0000000000009e78                _heap_size = (_heap_end - _heap_start)
                0x0000000000000001                ASSERT ((_heap_size >= _minimum_heap_size), not enough RAM left for heap)

.text           0x0000000000026000    0x41b0c
                0x0000000000026000                . = ALIGN (0x4)
 *(.isr_vector)
 .isr_vector    0x0000000000026000       0xd8 /tmp/firmware.elf.fkNs2M.ltrans0.ltrans.o
                0x0000000000026000                __Vectors
 *(.text)
 .text          0x00000000000260d8     0x8508 /tmp/firmware.elf.fkNs2M.ltrans0.ltrans.o
                0x00000000000260d8                memset
                0x000000000002627c                machine_pwm_period.lto_priv.0
                0x0000000000026284                stdio_obj___exit__.lto_priv.0
                0x000000000002628c                stdio_ioctl.lto_priv.0
                0x000000000002629c                atanf
                0x00000000000263e8                atan2f
                0x0000000000026860                sqrtf
                0x00000000000268f0                acosf
                0x00000000000269d8                asinf
                0x0000000000026a80                fmodf
                0x0000000000026b4c                scan_entry_get_addr.lto_priv.0
                0x0000000000026b50                delegate_handle_notif.lto_priv.0
                0x0000000000026b58                delegate_handle_conn.lto_priv.0
                0x0000000000026b60                uuid_bin_val.lto_priv.0
                0x0000000000026b6c                char_uuid.lto_priv.0
                0x0000000000026b70                char_properties.lto_priv.0
                0x0000000000026b7a                service_uuid.lto_priv.0
                0x0000000000026b7e                service_get_chars.lto_priv.0
                0x0000000000026b90                peripheral_get_services.lto_priv.0
                0x0000000000026b94                peripheral_disconnect.lto_priv.0
                0x0000000000026b9c                peripheral_set_conn_handler.lto_priv.0
                0x0000000000026ba8                peripheral_set_notif_handler.lto_priv.0
                0x0000000000026bb4                peripheral_with_delegate.lto_priv.0
                0x0000000000026bc0                ubluepy_uart_enabled.lto_priv.0
                0x0000000000026be0                ubluepy_uart_connected.lto_priv.0
                0x0000000000026c00                os_uname.lto_priv.0
                0x0000000000026c0c                machine_pwm_duty.lto_priv.0
                0x0000000000026c14                machine_rtc_counter.lto_priv.0
                0x0000000000026c24                machine_rtc_stop.lto_priv.0
                0x0000000000026c48                machine_rtc_start.lto_priv.0
                0x0000000000026c6c                machine_timer_stop.lto_priv.0
                0x0000000000026c8c                machine_timer_start.lto_priv.0
                0x0000000000026cb0                machine_timer_period.lto_priv.0
                0x0000000000026cc2                pin_af.lto_priv.0
                0x0000000000026ccc                pin_pull.lto_priv.0
                0x0000000000026cd4                pin_mode.lto_priv.0
                0x0000000000026cdc                pin_pin.lto_priv.0
                0x0000000000026ce6                pin_port.lto_priv.0
                0x0000000000026cf2                pin_name.lto_priv.0
                0x0000000000026cfc                pin_on.lto_priv.0
                0x0000000000026d14                pin_high.lto_priv.0
                0x0000000000026d2c                pin_off.lto_priv.0
                0x0000000000026d44                pin_low.lto_priv.0
                0x0000000000026d5c                pin_map_dict.lto_priv.0
                0x0000000000026d78                pin_mapper.lto_priv.0
                0x0000000000026d94                machine_enable_irq.lto_priv.0
                0x0000000000026d9c                machine_disable_irq.lto_priv.0
                0x0000000000026da4                machine_reset_cause.lto_priv.0
                0x0000000000026db8                machine_deepsleep.lto_priv.0
                0x0000000000026dc4                machine_lightsleep.lto_priv.0
                0x0000000000026dd0                machine_starve_wdt.lto_priv.0
                0x0000000000026f2c                machine_pwm_deinit.lto_priv.0
                0x0000000000027098                machine_rtc_deinit.lto_priv.0
                0x0000000000027370                machine_hard_spi_transfer.lto_priv.0
                0x000000000002747c                machine_spi_deinit.lto_priv.0
                0x0000000000027cfe                ubluepy_delegate_make_new.lto_priv.0
                0x0000000000027d64                stdio_write.lto_priv.0
                0x0000000000027d88                stdio_read.lto_priv.0
                0x0000000000027db6                stdio_obj_print
                0x0000000000027dc4                ubluepy_scan_entry_print.lto_priv.0
                0x0000000000027dd0                ubluepy_scanner_print.lto_priv.0
                0x0000000000027ddc                ubluepy_delegate_print.lto_priv.0
                0x0000000000027de8                ubluepy_uuid_print.lto_priv.0
                0x0000000000027e18                ubluepy_characteristic_print.lto_priv.0
                0x0000000000027e2c                ubluepy_service_print.lto_priv.0
                0x0000000000027e38                ubluepy_peripheral_print.lto_priv.0
                0x0000000000027e48                machine_temp_print.lto_priv.0
                0x0000000000027e54                machine_pwm_print.lto_priv.0
                0x0000000000027e64                rtc_print.lto_priv.0
                0x0000000000027e74                timer_print.lto_priv.0
                0x0000000000027e80                pin_print.lto_priv.0
                0x0000000000027ed8                machine_adc_print.lto_priv.0
                0x0000000000027ef0                machine_hard_spi_print.lto_priv.0
                0x0000000000027f00                pyb_set_repl_info
                0x0000000000027f20                scan_entry_get_rssi.lto_priv.0
                0x0000000000027f28                scan_entry_get_addr_type.lto_priv.0
                0x0000000000027f2e                machine_soft_reset.lto_priv.0
                0x0000000000027fc0                mod_random_uniform.lto_priv.0
                0x0000000000028006                mod_random_random.lto_priv.0
                0x0000000000028028                mod_random_choice.lto_priv.0
                0x0000000000028064                mod_random_randint.lto_priv.0
                0x000000000002809a                mod_random_randrange.lto_priv.0
                0x000000000002811c                mod_random_getrandbits.lto_priv.0
                0x000000000002814a                ble_obj_enabled
                0x0000000000028158                machine_temp_read.lto_priv.0
                0x000000000002819c                ble_obj_address
                0x0000000000028268                peripheral_add_service.lto_priv.0
                0x000000000002828c                mp_utime_localtime.lto_priv.0
                0x0000000000028424                scan_entry_get_scan_data.lto_priv.0
                0x000000000002854c                pin_names.lto_priv.0
                0x0000000000028588                pin_af_list.lto_priv.0
                0x000000000002862c                scanner_scan.lto_priv.0
                0x0000000000028668                ubluepy_scanner_make_new.lto_priv.0
                0x0000000000028690                ubluepy_characteristic_make_new.lto_priv.0
                0x00000000000286f8                ubluepy_peripheral_make_new.lto_priv.0
                0x0000000000028740                machine_temp_make_new.lto_priv.0
                0x0000000000028770                ubluepy_uuid_make_new.lto_priv.0
                0x00000000000289dc                mp_machine_spi_write_readinto.lto_priv.0
                0x0000000000028a20                mp_machine_spi_write.lto_priv.0
                0x0000000000028a44                mp_machine_spi_readinto.lto_priv.0
                0x0000000000028a84                machine_pwm_freq.lto_priv.0
                0x0000000000028aa8                char_write.lto_priv.0
                0x0000000000028b70                char_read.lto_priv.0
                0x0000000000028bbc                service_get_characteristic.lto_priv.0
                0x0000000000028c20                mp_utime_mktime.lto_priv.0
                0x0000000000028d94                service_add_characteristic.lto_priv.0
                0x0000000000028db8                ubluepy_service_make_new.lto_priv.0
                0x0000000000028ebc                peripheral_connect.lto_priv.0
                0x0000000000029144                peripheral_advertise_stop.lto_priv.0
                0x0000000000029154                peripheral_advertise.lto_priv.0
                0x00000000000292d4                pin_obj_init.lto_priv.0
                0x00000000000292e6                pin_call.lto_priv.0
                0x0000000000029348                pin_value.lto_priv.0
                0x000000000002935a                mp_machine_spi_read.lto_priv.0
                0x0000000000029460                ble_obj_disable
                0x0000000000029470                gc_collect_root.constprop.0
                0x00000000000294d4                gc_init.constprop.0
                0x000000000002959c                wdt_feed.constprop.0
                0x0000000000029638                mp_lexer_new_from_str_len.constprop.0
                0x0000000000029678                emit_write_bytecode_byte_obj.constprop.0
                0x00000000000296a2                emit_fold_stack_top.constprop.0
                0x00000000000296e6                emit_load_reg_with_ptr.constprop.0
                0x000000000002972e                emit_call_with_2_imm_args.constprop.0
                0x0000000000029760                mp_obj_exception_clear_traceback.constprop.0
                0x0000000000029780                mp_stream_write.constprop.0
                0x00000000000297b0                strchr
                0x00000000000297ca                strcspn
                0x00000000000297ea                strspn
                0x000000000002980a                strcat
                0x000000000002982a                strcpy
                0x000000000002983e                strncmp
                0x000000000002987e                strcmp
                0x00000000000298aa                strlen
                0x00000000000298b8                strstr
                0x00000000000298ea                memchr
                0x0000000000029904                memcmp
                0x0000000000029928                memcpy
                0x0000000000029a2c                memmove
                0x0000000000029a5c                vstr_ins_blank_bytes.constprop.0
                0x0000000000029a8a                modff
                0x0000000000029ad0                frexpf
                0x0000000000029b1c                nearbyintf
                0x0000000000029b68                truncf
                0x0000000000029ba8                floorf
                0x0000000000029c14                ceilf
                0x0000000000029c7c                logf
                0x0000000000029d80                expm1f
                0x0000000000029f70                scalbnf
                0x000000000002a5c8                tanf
                0x000000000002a61c                cosf
                0x000000000002a6a4                sinf
                0x000000000002a730                ldexpf
                0x000000000002a760                expf
                0x000000000002a898                sinhf
                0x000000000002a934                coshf
                0x000000000002a9d0                powf
                0x000000000002af20                tanhf
                0x000000000002af5a                log10f
                0x000000000002af70                errata_36.lto_priv.0
                0x000000000002af70                errata_108.lto_priv.0
                0x000000000002af70                errata_12.lto_priv.0
                0x000000000002af70                errata_136.lto_priv.0
                0x000000000002af70                errata_31.lto_priv.0
                0x000000000002afb0                errata_16.lto_priv.0
                0x000000000002afb0                errata_57.lto_priv.0
                0x000000000002afb0                errata_37.lto_priv.0
                0x000000000002afb0                errata_32.lto_priv.0
                0x000000000002afe4                __NVIC_SystemReset.lto_priv.1.lto_priv.0
                0x000000000002afe4                __NVIC_SystemReset.lto_priv.0.lto_priv.0
                0x000000000002b008                machine_enter_serial_dfu.lto_priv.0
                0x000000000002b018                machine_enter_ota_dfu.lto_priv.0
                0x000000000002b028                machine_reset.lto_priv.0
                0x000000000002b02e                pin_find
                0x000000000002b138                machine_pwm_make_new.lto_priv.0
                0x000000000002b21c                pin_make_new.lto_priv.0
                0x000000000002b264                machine_adc_make_new.lto_priv.0
                0x000000000002b31c                machine_hard_i2c_make_new
                0x000000000002b3f0                asm_thumb_end_pass
                0x000000000002b3f0                saadc_event_handler.lto_priv.0
                0x000000000002b3f2                nrf_gpiote_event_clear.lto_priv.0
                0x000000000002b40a                pin_irq.lto_priv.0
                0x000000000002b730                sd_nvic_EnableIRQ.lto_priv.1.lto_priv.0
                0x000000000002b730                sd_nvic_EnableIRQ.lto_priv.0.lto_priv.0
                0x000000000002b730                sd_nvic_EnableIRQ.lto_priv.6.lto_priv.0
                0x000000000002b7bc                sd_nvic_SetPriority.lto_priv.0.lto_priv.0
                0x000000000002ba50                machine_spi_init.lto_priv.0
                0x000000000002ba8c                machine_spi_make_new.lto_priv.0
                0x000000000002bb50                machine_pwm_init.lto_priv.0
                0x000000000002bd4c                machine_timer_make_new.lto_priv.0
                0x000000000002beb4                machine_rtc_make_new.lto_priv.0
                0x000000000002bfbc                nrfx_timer_uninit
                0x000000000002c004                machine_timer_deinit.lto_priv.0
                0x000000000002c014                nrf_saadc_event_clear.lto_priv.0
                0x000000000002c120                machine_adc_battery_level
                0x000000000002c204                machine_adc_read_u16.lto_priv.0
                0x000000000002c22e                machine_adc_value
                0x000000000002c3dc                lfs2_crc
                0x000000000002c45a                lfs2_cache_zero.isra.0.lto_priv.0
                0x000000000002c470                lfs2_bd_read.isra.0.lto_priv.0
                0x000000000002c566                lfs2_bd_cmp.constprop.0
                0x000000000002cacc                lfs2_fs_preporphans.lto_priv.0
                0x000000000002caee                lfs2_fs_pred.lto_priv.0
                0x000000000002cb2a                lfs2_fs_traverse
                0x000000000002cc4c                lfs2_init.lto_priv.0
                0x000000000002ccc8                lfs2_file_flush.lto_priv.0
                0x000000000002cda4                lfs2_file_write
                0x000000000002d068                lfs2_file_read
                0x000000000002d168                lfs2_dir_alloc.lto_priv.0
                0x000000000002d5ec                lfs2_dir_commit.lto_priv.0
                0x000000000002d8d0                lfs2_file_sync
                0x000000000002d988                lfs2_file_close
                0x000000000002d9b2                lfs2_dir_drop.lto_priv.0
                0x000000000002d9ec                lfs2_fs_forceconsistency.lto_priv.0
                0x000000000002db00                lfs2_dir_find.lto_priv.0
                0x000000000002dc5c                lfs2_stat
                0x000000000002dc86                parse_compile_execute.lto_priv.0
                0x000000000002ddbc                pyexec_file_if_exists
                0x000000000002de50                readline
                0x000000000002e4a4                ble_obj_enable
                0x000000000002e4bc                machine_info.lto_priv.0
 .text          0x000000000002e5e0     0x725c /tmp/firmware.elf.fkNs2M.ltrans1.ltrans.o
                0x000000000002e822                SWI2_EGU2_IRQHandler
                0x000000000002eb64                HardFault_Handler
                0x000000000002eb80                mp_vfs_lfs2_umount.lto_priv.0
                0x000000000002eb88                mp_vfs_lfs2_mount.lto_priv.0
                0x000000000002eb90                lfs2_traverse_cb.lto_priv.0
                0x000000000002ed38                mp_machine_soft_i2c_read
                0x000000000002edc6                mp_machine_soft_i2c_write
                0x000000000002edee                mp_hal_i2c_stop.lto_priv.0
                0x000000000002ee0a                mp_hal_i2c_start.lto_priv.0
                0x000000000002ee28                mp_machine_soft_i2c_transfer
                0x000000000002eeda                mp_small_int_floor_divide
                0x000000000002eef6                mp_small_int_modulo
                0x000000000002ef58                mp_vfs_lfs2_file___exit__.lto_priv.0
                0x000000000002f054                bma42x_BMA42X_print.lto_priv.0
                0x000000000002f060                pin_named_pins_obj_print.lto_priv.0
                0x000000000002f06c                machine_mem_print.lto_priv.0
                0x000000000002f090                mp_vfs_lfs2_getcwd.lto_priv.0
                0x000000000002f0a2                lfs2_dir_find_match.lto_priv.0
                0x000000000002f464                bma42x_BMA42X_debug.lto_priv.0
                0x000000000002f480                time_sleep_us.lto_priv.0
                0x000000000002f4d0                bma42x_BMA42X_make_new
                0x000000000002f58c                bma42x_BMA42X_write_config_file.lto_priv.0
                0x000000000002f72c                bma42x_BMA42X_step_counter_set_watermark.lto_priv.0
                0x000000000002f794                bma42x_BMA42X_step_counter_output.lto_priv.0
                0x000000000002f7c8                bma42x_BMA42X_step_detector_enable.lto_priv.0
                0x000000000002f834                bma42x_BMA42X_set_reg.lto_priv.0
                0x000000000002f86c                bma42x_BMA42X_set_offset_comp.lto_priv.0
                0x000000000002f8d0                bma42x_BMA42X_set_command_register.lto_priv.0
                0x000000000002f908                bma42x_BMA42X_set_accel_enable.lto_priv.0
                0x000000000002f96c                bma42x_BMA42X_set_no_mot_config.lto_priv.0
                0x000000000002f9e0                bma42x_BMA42X_set_any_mot_config.lto_priv.0
                0x000000000002fa54                bma42x_BMA42X_set_accel_config.lto_priv.0
                0x000000000002fafc                bma42x_BMA42X_read_int_status.lto_priv.0
                0x000000000002fb56                bma42x_BMA42X_read_accel_xyz.lto_priv.0
                0x000000000002fc24                bma42x_BMA42X_map_interrupt.lto_priv.0
                0x000000000002fcf0                bma42x_BMA42X_init.lto_priv.0
                0x000000000002fd6c                bma42x_BMA42X_get_temperature.lto_priv.0
                0x000000000002fdec                bma42x_BMA42X_get_reg.lto_priv.0
                0x000000000002fe18                bma42x_BMA42X_get_offset_comp.lto_priv.0
                0x000000000002fe5a                bma42x_BMA42X_feature_enable.lto_priv.0
                0x000000000002ff5c                machine_i2c_scan.lto_priv.0
                0x000000000002ff94                mp_vfs_lfs2_file_ioctl.lto_priv.0
                0x0000000000030048                mp_vfs_lfs2_file_write.lto_priv.0
                0x0000000000030074                mp_vfs_lfs2_file_read.lto_priv.0
                0x00000000000300a0                mp_vfs_lfs2_statvfs.lto_priv.0
                0x0000000000030110                machine_i2c_writeto_mem.lto_priv.0
                0x0000000000030190                machine_i2c_readfrom_mem_into.lto_priv.0
                0x00000000000301e4                machine_i2c_writeto.lto_priv.0
                0x0000000000030230                machine_i2c_readfrom_into.lto_priv.0
                0x000000000003027c                machine_i2c_write.lto_priv.0
                0x00000000000302b6                machine_i2c_readinto.lto_priv.0
                0x0000000000030304                machine_i2c_stop.lto_priv.0
                0x0000000000030324                machine_i2c_start.lto_priv.0
                0x000000000003036a                mp_vfs_lfs2_file_print.lto_priv.0
                0x0000000000030388                mp_vfs_lfs2_import_stat.lto_priv.0
                0x00000000000303ac                mp_vfs_lfs2_stat.lto_priv.0
                0x00000000000305b0                machine_i2c_readfrom_mem.lto_priv.0
                0x000000000003060c                machine_i2c_readfrom.lto_priv.0
                0x0000000000030664                machine_i2c_writevto.lto_priv.0
                0x0000000000030788                machine_i2c_obj_init.lto_priv.0
                0x00000000000307a0                machine_i2c_make_new.lto_priv.0
                0x0000000000030824                machine_mem_subscr.lto_priv.0
                0x0000000000030880                mod_ujson_load.lto_priv.0
                0x0000000000030c08                mod_ujson_loads.lto_priv.0
                0x0000000000030c48                mod_ujson_dumps.lto_priv.0
                0x0000000000030c7c                mod_ujson_dump.lto_priv.0
                0x0000000000030ca8                mp_setup_code_state
                0x0000000000030fc0                lfs2_alloc.lto_priv.0
                0x0000000000031080                lfs2_gstate_xormove.lto_priv.0
                0x00000000000310dc                lfs2_tag_dsize.lto_priv.0
                0x00000000000310f0                lfs2_pair_cmp.lto_priv.0
                0x0000000000031112                lfs2_gstate_hasmovehere.lto_priv.0
                0x0000000000031130                lfs2_dir_fetchmatch.lto_priv.0
                0x00000000000314e0                lfs2_dir_fetch.lto_priv.0
                0x00000000000314fa                mp_vfs_lfs2_mkfs.lto_priv.0
                0x00000000000315f0                lfs2_dir_traverse.lto_priv.0
                0x00000000000317cc                lfs2_dir_getslice.lto_priv.0
                0x00000000000318ec                lfs2_dir_get.lto_priv.0
                0x0000000000031904                lfs2_dir_getgstate.lto_priv.0
                0x0000000000031948                mp_vfs_lfs2_remove.lto_priv.0
                0x0000000000031a20                mp_vfs_lfs2_rmdir.lto_priv.0
                0x0000000000031a22                mp_vfs_lfs2_ilistdir_func.lto_priv.0
                0x0000000000031b14                lfs2_pair_isnull.lto_priv.0
                0x0000000000031b28                mp_vfs_lfs2_make_new.lto_priv.0
                0x0000000000031cbc                lfs2_bd_flush.lto_priv.0
                0x0000000000031d3a                DebugMon_Handler
                0x0000000000031d3a                SWI0_EGU0_IRQHandler
                0x0000000000031d3a                SysTick_Handler
                0x0000000000031d3a                PendSV_Handler
                0x0000000000031d3a                NMI_Handler
                0x0000000000031d3a                POWER_CLOCK_IRQHandler
                0x0000000000031d3a                RADIO_IRQHandler
                0x0000000000031d3a                PDM_IRQHandler
                0x0000000000031d3a                TEMP_IRQHandler
                0x0000000000031d3a                QDEC_IRQHandler
                0x0000000000031d3a                UsageFault_Handler
                0x0000000000031d3a                I2S_IRQHandler
                0x0000000000031d3a                SWI4_EGU4_IRQHandler
                0x0000000000031d3a                ECB_IRQHandler
                0x0000000000031d3a                Default_Handler
                0x0000000000031d3a                CCM_AAR_IRQHandler
                0x0000000000031d3a                WDT_IRQHandler
                0x0000000000031d3a                SVC_Handler
                0x0000000000031d3a                SWI5_EGU5_IRQHandler
                0x0000000000031d3a                RNG_IRQHandler
                0x0000000000031d3a                SWI3_EGU3_IRQHandler
                0x0000000000031d3a                SWI1_EGU1_IRQHandler
                0x0000000000031d3a                NFCT_IRQHandler
                0x0000000000031d3a                BusFault_Handler
                0x0000000000031d3a                MWU_IRQHandler
                0x0000000000031d3a                MemoryManagement_Handler
                0x0000000000031d3a                COMP_LPCOMP_IRQHandler
                0x0000000000031d3c                mp_hal_stdin_rx_chr
                0x0000000000031da4                ble_drv_attr_s_notify
                0x0000000000031e08                mp_hal_stdout_tx_strn
                0x0000000000031e48                ble_drv_advertise_stop
                0x0000000000031e84                ble_drv_characteristic_add
                0x0000000000031f38                ble_drv_stack_enabled
                0x0000000000031f4c                sd_ble_gatts_value_set.lto_priv.0
                0x0000000000031f50                sd_ble_gattc_write.lto_priv.0
                0x0000000000031f54                sd_ble_gattc_read.lto_priv.0
                0x0000000000031f58                sd_ble_gattc_characteristics_discover.lto_priv.0
                0x0000000000031f5c                sd_ble_gattc_primary_services_discover.lto_priv.0
                0x0000000000031f60                sd_ble_gap_connect.lto_priv.0
                0x0000000000031f64                sd_ble_gap_scan_stop.lto_priv.0
                0x0000000000031f68                sd_ble_gap_addr_get.lto_priv.0
                0x0000000000031f6c                sd_softdevice_disable.lto_priv.0.lto_priv.0
                0x0000000000031f6c                sd_softdevice_disable.lto_priv.1.lto_priv.0
                0x0000000000031f70                gc_collect
                0x0000000000031fa8                mp_hal_delay_ms
                0x0000000000031fc0                time_sleep_ms.lto_priv.0
                0x0000000000031fd8                time_sleep.lto_priv.0
                0x0000000000032000                vsnprintf
                0x0000000000032034                snprintf
                0x000000000003204e                putchar
                0x0000000000032068                vprintf
                0x0000000000032078                printf
                0x0000000000032098                nlr_jump_fail
                0x00000000000320b8                mp_small_int_mul_overflow
                0x0000000000032102                lfs2_dir_getinfo.lto_priv.0
                0x0000000000032190                lfs2_bd_prog.lto_priv.0
                0x00000000000322f8                mp_machine_i2c_transfer_adaptor
                0x00000000000323a0                ble_drv_stack_enable
                0x0000000000032488                ble_drv_scan_start
                0x00000000000324ec                ble_drv_advertise_data
                0x00000000000327c0                ble_drv_service_add
                0x0000000000032810                ble_drv_uuid_add_vs
                0x0000000000032844                mp_hal_stdout_tx_str
                0x0000000000032858                puts
                0x000000000003297c                Reset_Handler
                0x000000000003333a                mp_vfs_lfs2_file_open
                0x000000000003363c                mp_vfs_lfs2_chdir.lto_priv.0
                0x00000000000336a4                mp_vfs_lfs2_mkdir.lto_priv.0
                0x00000000000337f4                mp_vfs_lfs2_rename.lto_priv.0
                0x0000000000033b5c                mp_vfs_getcwd
                0x0000000000033bd8                mp_vfs_umount
                0x0000000000033c68                mp_find_frozen_module
                0x0000000000033d06                mp_frozen_stat
                0x0000000000033db0                mp_vfs_mount
                0x0000000000033ec8                mp_vfs_import_stat
                0x0000000000033f9a                mp_vfs_statvfs
                0x0000000000033ff4                mp_vfs_stat
                0x0000000000034032                mp_vfs_rmdir
                0x000000000003404c                mp_vfs_rename
                0x000000000003407a                mp_vfs_remove
                0x0000000000034092                mp_vfs_mkdir
                0x00000000000340d0                mp_vfs_listdir
                0x0000000000034158                mp_vfs_chdir
                0x00000000000341a0                mp_vfs_open
                0x00000000000341cc                mp_reader_new_file
 .text          0x000000000003583c     0x55b8 /tmp/firmware.elf.fkNs2M.ltrans2.ltrans.o
                0x000000000003583c                mp_load_super_method
                0x0000000000035884                mp_micropython_heap_unlock.lto_priv.0
                0x000000000003589c                mp_micropython_heap_lock.lto_priv.0
                0x00000000000358b4                mp_micropython_stack_use.lto_priv.0
                0x00000000000358d2                gc_isenabled.lto_priv.0
                0x00000000000358f4                gc_enable.lto_priv.0
                0x0000000000035908                gc_disable.lto_priv.0
                0x000000000003591c                mp_builtin_locals.lto_priv.0
                0x0000000000035928                mp_builtin_globals.lto_priv.0
                0x0000000000035934                op_contains.lto_priv.0
                0x000000000003594e                op_delitem.lto_priv.0
                0x0000000000035968                op_setitem.lto_priv.0
                0x0000000000035984                op_getitem.lto_priv.0
                0x0000000000035a2c                mp_obj_tuple_getiter
                0x0000000000035a64                mp_obj_new_bytes_iterator.lto_priv.0
                0x0000000000035a80                mp_obj_new_str_iterator.lto_priv.0
                0x0000000000035a9c                bytes_decode.lto_priv.0
                0x0000000000035ac8                mp_builtin_hash.lto_priv.0
                0x0000000000035ad0                mp_builtin_abs.lto_priv.0
                0x0000000000035ad8                mp_obj_tuple_unary_op
                0x0000000000035b34                mp_builtin_iter.lto_priv.0
                0x0000000000035b3a                stringio_ioctl.lto_priv.0
                0x0000000000035baa                type_call.lto_priv.0
                0x0000000000035bd0                mp_builtin_oct.lto_priv.0
                0x0000000000035bdc                mp_builtin_hex.lto_priv.0
                0x0000000000035be8                mp_builtin_divmod.lto_priv.0
                0x0000000000035bf2                mp_stream_write_adaptor
                0x0000000000035bf6                mp_sys_exit.lto_priv.0
                0x0000000000035c18                mp_micropython_opt_level.lto_priv.0
                0x0000000000035c40                mp_math_isnan.lto_priv.0
                0x0000000000035c60                mp_math_isinf.lto_priv.0
                0x0000000000035c8c                mp_math_isfinite.lto_priv.0
                0x0000000000035cb8                gc_threshold.lto_priv.0
                0x0000000000035cf8                mp_math_degrees.lto_priv.0
                0x0000000000035d14                mp_math_radians.lto_priv.0
                0x0000000000035db0                mp_math_fmod.lto_priv.0
                0x0000000000035db8                mp_math_copysign.lto_priv.0
                0x0000000000035dc0                mp_math_atan2.lto_priv.0
                0x0000000000035dc8                mp_math_pow.lto_priv.0
                0x0000000000035e30                mp_math_fabs.lto_priv.0
                0x0000000000035e38                mp_math_atan.lto_priv.0
                0x0000000000035e40                mp_math_asin.lto_priv.0
                0x0000000000035e48                mp_math_acos.lto_priv.0
                0x0000000000035e50                mp_math_tan.lto_priv.0
                0x0000000000035e58                mp_math_sin.lto_priv.0
                0x0000000000035e60                mp_math_cos.lto_priv.0
                0x0000000000035e68                mp_math_exp.lto_priv.0
                0x0000000000035e70                mp_math_sqrt.lto_priv.0
                0x0000000000035ea8                mp_micropython_schedule.lto_priv.0
                0x0000000000035efc                mp_builtin_pow.lto_priv.0
                0x0000000000035f20                mp_get_stream_raise
                0x0000000000035f58                mp_sys_print_exception.lto_priv.0
                0x0000000000035f90                mp_micropython_kbd_intr.lto_priv.0
                0x0000000000035fb0                type_print.lto_priv.0
                0x0000000000035fbc                stringio_print.lto_priv.0
                0x0000000000035fe4                mp_micropython_qstr_info.lto_priv.0
                0x0000000000036068                mp_micropython_mem_info
                0x00000000000360b2                gc_mem_alloc.lto_priv.0
                0x00000000000360ca                gc_mem_free.lto_priv.0
                0x00000000000360e2                py_gc_collect.lto_priv.0
                0x00000000000360f0                mp_builtin_sorted.lto_priv.0
                0x0000000000036124                mp_builtin_sum.lto_priv.0
                0x0000000000036158                mp_builtin_any.lto_priv.0
                0x0000000000036184                mp_builtin_all.lto_priv.0
                0x00000000000361b0                mp_builtin___repl_print__.lto_priv.0
                0x00000000000361f4                super_print.lto_priv.0
                0x0000000000036234                mp_obj_tuple_print
                0x0000000000036384                mp_builtin_min.lto_priv.0
                0x0000000000036388                mp_builtin_max.lto_priv.0
                0x0000000000036420                stream_flush.lto_priv.0
                0x0000000000036444                stream_seek.lto_priv.0
                0x0000000000036496                stream_tell.lto_priv.0
                0x00000000000364ae                mp_stream_close
                0x00000000000364d4                stringio___exit__.lto_priv.0
                0x00000000000364d8                stream_write_method.lto_priv.0
                0x0000000000036534                zip_make_new.lto_priv.0
                0x0000000000036580                static_class_method_make_new.lto_priv.0
                0x00000000000365a0                super_make_new.lto_priv.0
                0x00000000000366b8                mp_builtin_callable.lto_priv.0
                0x0000000000036710                super_attr.lto_priv.0
                0x0000000000036ab4                mp_obj_str_get_buffer
                0x0000000000036b70                str_islower.lto_priv.0
                0x0000000000036b7c                str_isupper.lto_priv.0
                0x0000000000036b88                str_isdigit.lto_priv.0
                0x0000000000036b94                str_isalpha.lto_priv.0
                0x0000000000036ba0                str_isspace.lto_priv.0
                0x0000000000036bac                mp_obj_is_subclass_fast
                0x0000000000036c78                mp_builtin_isinstance.lto_priv.0
                0x0000000000036c8a                mp_builtin_issubclass.lto_priv.0
                0x0000000000036cac                gen_instance_send.part.0.lto_priv.0
                0x0000000000036cac                gen_instance_throw.part.0.lto_priv.0
                0x0000000000036cbc                mp_builtin_next.lto_priv.0
                0x0000000000036cf6                mp_map_slot_is_filled.isra.0.lto_priv.0.lto_priv.0
                0x0000000000036cf6                mp_map_slot_is_filled.isra.0.lto_priv.1.lto_priv.0
                0x0000000000036d04                mp_builtin_dir.lto_priv.0
                0x0000000000036ed8                mp_binary_get_val_array
                0x0000000000037020                mp_binary_get_size
                0x00000000000371ca                mp_binary_set_val_array
                0x0000000000037334                mp_stream_rw
                0x0000000000037394                stream_readinto.lto_priv.0
                0x00000000000373ec                mp_seq_count_obj
                0x0000000000037416                tuple_count.lto_priv.0
                0x0000000000037420                mp_seq_index_obj
                0x0000000000037488                tuple_index.lto_priv.0
                0x0000000000037496                mp_seq_cmp_objs
                0x0000000000037530                mp_seq_get_fast_slice_indexes
                0x0000000000037608                mp_call_function_n_kw.part.0
                0x000000000003767c                mp_obj_new_instance
                0x00000000000376a8                mp_obj_new_tuple.part.0
                0x00000000000376dc                mp_obj_new_tuple
                0x00000000000376e8                mp_builtin___build_class__.lto_priv.0
                0x000000000003775c                zip_iternext.lto_priv.0
                0x00000000000377a4                mp_obj_tuple_make_new.lto_priv.0
                0x0000000000037820                type_attr.lto_priv.0
                0x00000000000378f8                bad_implicit_conversion.lto_priv.0
                0x000000000003791c                mp_obj_str_get_data
                0x0000000000037954                mp_builtin_print.lto_priv.0
                0x00000000000379d8                mp_builtin_ord.lto_priv.0
                0x0000000000037ad8                mp_builtin_exec.lto_priv.0
                0x0000000000037adc                mp_builtin_eval.lto_priv.0
                0x0000000000037ae0                mp_obj_str_get_str
                0x0000000000037b10                struct_calcsize.lto_priv.0
                0x0000000000037b2a                mp_obj_str_get_qstr
                0x0000000000037b58                mp_builtin_hasattr.lto_priv.0
                0x0000000000037b88                mp_builtin_setattr.lto_priv.0
                0x0000000000037ba8                mp_builtin_delattr.lto_priv.0
                0x0000000000037bac                mp_builtin_getattr.lto_priv.0
                0x0000000000037c00                mp_builtin_compile.lto_priv.0
                0x0000000000037c6c                type_make_new.lto_priv.0
                0x0000000000037e28                mp_obj_new_str_from_vstr
                0x0000000000037e94                mp_builtin_repr.lto_priv.0
                0x0000000000037ec8                mp_builtin_input.lto_priv.0
                0x0000000000037f24                stream_unbuffered_readline.lto_priv.0
                0x0000000000037fd8                mp_stream_unbuffered_iter
                0x0000000000037ff6                stream_unbuffered_readlines.lto_priv.0
                0x0000000000038022                stream_read.lto_priv.0
                0x000000000003814e                str_upper.lto_priv.0
                0x0000000000038158                str_lower.lto_priv.0
                0x0000000000038164                mp_obj_str_format
                0x00000000000381b0                mp_builtin_bin.lto_priv.0
                0x00000000000381ca                mp_obj_new_str_via_qstr
                0x00000000000381d8                mp_builtin_chr.lto_priv.0
                0x000000000003823c                mp_binary_set_int
                0x0000000000038418                struct_pack_into.lto_priv.0
                0x0000000000038470                struct_pack.lto_priv.0
                0x00000000000384b8                mp_obj_instance_make_new
                0x0000000000038600                mp_obj_tuple_subscr
                0x0000000000038670                mp_obj_tuple_binary_op
                0x000000000003877c                stringio_write.lto_priv.0
                0x0000000000038830                stringio_make_new.lto_priv.0
                0x00000000000388e8                stringio_read.lto_priv.0
                0x0000000000038924                mp_obj_new_str_copy
                0x000000000003895e                mp_obj_new_bytes
                0x000000000003896c                bytes_make_new.part.0.lto_priv.0
                0x0000000000038a74                str_encode.lto_priv.0
                0x0000000000038aa0                mp_obj_new_str
                0x0000000000038ac8                mp_obj_new_str_of_type
                0x0000000000038adc                stringio_getvalue.lto_priv.0
                0x0000000000038b14                str_replace.lto_priv.0
                0x0000000000038c7a                struct_unpack_from.lto_priv.0
                0x0000000000038eb2                mp_builtin_help.lto_priv.0
                0x000000000003917c                mp_math_modf.lto_priv.0
                0x00000000000391aa                mp_math_frexp.lto_priv.0
                0x00000000000391d6                mp_math_log.lto_priv.0
                0x000000000003924c                mp_math_ldexp.lto_priv.0
                0x0000000000039270                mp_math_trunc.lto_priv.0
                0x0000000000039282                mp_math_floor.lto_priv.0
                0x0000000000039294                mp_math_ceil.lto_priv.0
                0x00000000000392a6                mp_builtin_round.lto_priv.0
                0x0000000000039324                mp_builtin___import__
                0x00000000000396d0                mp_execute_bytecode
                0x000000000003acac                mp_seq_cmp_bytes
                0x000000000003ad14                str_count.lto_priv.0
 .text          0x000000000003adf4     0x58d4 /tmp/firmware.elf.fkNs2M.ltrans3.ltrans.o
                0x000000000003aeb4                set_getiter.lto_priv.0
                0x000000000003aef8                range_getiter.lto_priv.0
                0x000000000003af14                range_unary_op.lto_priv.0
                0x000000000003af84                polymorph_it_iternext.lto_priv.0
                0x000000000003af88                object___init__.lto_priv.0
                0x000000000003afac                list_reverse.lto_priv.0
                0x000000000003afe0                list_getiter.lto_priv.0
                0x000000000003affc                list_unary_op.lto_priv.0
                0x000000000003b060                mp_obj_fun_bc_attr
                0x000000000003b07a                mp_obj_exception_attr
                0x000000000003b0c0                dict_getiter.lto_priv.0
                0x000000000003b0f0                dict_unary_op.lto_priv.0
                0x000000000003b124                bool_binary_op.lto_priv.0
                0x000000000003b130                mp_obj_attrtuple_attr.lto_priv.0
                0x000000000003b158                array_iterator_new.lto_priv.0
                0x000000000003b180                gen_instance_pend_throw.lto_priv.0
                0x000000000003b198                fun_native_call.lto_priv.0
                0x000000000003b1c0                set_pop.lto_priv.0
                0x000000000003b24c                bytes_subscr.lto_priv.0
                0x000000000003b2e0                bytes_make_new.lto_priv.0
                0x000000000003b304                fun_builtin_var_call.lto_priv.0
                0x000000000003b348                fun_builtin_3_call.lto_priv.0
                0x000000000003b368                fun_builtin_2_call.lto_priv.0
                0x000000000003b386                fun_builtin_1_call.lto_priv.0
                0x000000000003b3a2                fun_builtin_0_call.lto_priv.0
                0x000000000003b3b8                mp_obj_new_slice
                0x000000000003b3d8                range_subscr.lto_priv.0
                0x000000000003b470                range_make_new.lto_priv.0
                0x000000000003b4d0                property_deleter.lto_priv.0
                0x000000000003b4ec                property_setter.lto_priv.0
                0x000000000003b508                property_getter.lto_priv.0
                0x000000000003b524                object_make_new.lto_priv.0
                0x000000000003b53c                mp_obj_new_dict
                0x000000000003b568                dict_items.lto_priv.0
                0x000000000003b584                dict_values.lto_priv.0
                0x000000000003b5a0                dict_keys.lto_priv.0
                0x000000000003b5bc                mp_obj_new_bytearray_by_ref
                0x000000000003b5dc                mp_obj_str_make_new
                0x000000000003b68c                slice_print.lto_priv.0
                0x000000000003b6e0                set_print.lto_priv.0
                0x000000000003b790                none_print.lto_priv.0
                0x000000000003b7a4                list_print.lto_priv.0
                0x000000000003b7fc                bool_print.lto_priv.0
                0x000000000003b828                singleton_print.lto_priv.0
                0x000000000003b834                range_print.lto_priv.0
                0x000000000003b870                gen_instance_print.lto_priv.0
                0x000000000003b890                fun_bc_print.lto_priv.0
                0x000000000003b940                mp_obj_attrtuple_print.lto_priv.0
                0x000000000003b94c                map_make_new.lto_priv.0
                0x000000000003b99c                filter_make_new.lto_priv.0
                0x000000000003b9ca                mp_obj_set_store
                0x000000000003b9d2                mp_obj_new_set
                0x000000000003ba14                set_discard.lto_priv.0
                0x000000000003ba28                set_add.lto_priv.0
                0x000000000003ba62                set_update.lto_priv.0
                0x000000000003ba84                set_symmetric_difference_update.lto_priv.0
                0x000000000003bab0                set_isdisjoint.lto_priv.0
                0x000000000003baec                set_make_new.lto_priv.0
                0x000000000003bc64                set_issuperset.lto_priv.0
                0x000000000003bc6e                set_issubset.lto_priv.0
                0x000000000003bc72                set_clear.lto_priv.0
                0x000000000003bc8c                mp_alloc_emergency_exception_buf
                0x000000000003bcbc                set_unary_op.lto_priv.0
                0x000000000003bd2c                bool_unary_op.lto_priv.0
                0x000000000003bd40                set_intersect_update.lto_priv.0
                0x000000000003bd50                reversed_iternext.lto_priv.0
                0x000000000003bd6a                reversed_make_new.lto_priv.0
                0x000000000003bdb6                bound_meth_attr.lto_priv.0
                0x000000000003bdc2                property_make_new.lto_priv.0
                0x000000000003bdf8                enumerate_make_new.lto_priv.0
                0x000000000003be34                object___new__.lto_priv.0
                0x000000000003be68                module_print.lto_priv.0
                0x000000000003bec8                map_iternext.lto_priv.0
                0x000000000003bf14                list_index.lto_priv.0
                0x000000000003bf28                list_count.lto_priv.0
                0x000000000003bf32                list_clear.lto_priv.0
                0x000000000003bf58                list_pop.lto_priv.0
                0x000000000003bfd4                mp_obj_list_remove
                0x000000000003bff8                mp_obj_list_append
                0x000000000003c040                list_insert.lto_priv.0
                0x000000000003c16c                mp_obj_list_sort
                0x000000000003c1cc                enumerate_iternext.lto_priv.0
                0x000000000003c1f4                int_to_bytes.lto_priv.0
                0x000000000003c274                it_iternext.lto_priv.0
                0x000000000003c2c8                native_gen_wrap_call.lto_priv.0
                0x000000000003c34c                gen_wrap_call.lto_priv.0
                0x000000000003c3d4                fun_bc_call.lto_priv.0
                0x000000000003c4b4                complex_print.lto_priv.0
                0x000000000003c54c                filter_iternext.lto_priv.0
                0x000000000003c580                bool_make_new.lto_priv.0
                0x000000000003c5ac                mp_obj_exception_print
                0x000000000003c624                dict_fromkeys.lto_priv.0
                0x000000000003c698                array_get_buffer.lto_priv.0
                0x000000000003c7c4                dict_binary_op.lto_priv.0
                0x000000000003c858                dict_print.lto_priv.0
                0x000000000003c90c                mp_str_print_quoted
                0x000000000003c9d4                str_print.lto_priv.0
                0x000000000003cad0                mp_module_call_init
                0x000000000003cb08                mp_module_get
                0x000000000003cb48                mp_obj_list_init
                0x000000000003cb80                list_new.lto_priv.0
                0x000000000003cb98                mp_obj_new_list
                0x000000000003cbbc                list_copy.lto_priv.0
                0x000000000003cbc2                list_make_new.lto_priv.0
                0x000000000003cbf0                mp_obj_int_get_checked
                0x000000000003cc34                mp_obj_int_sign
                0x000000000003cc64                mp_obj_int_new_mpz
                0x000000000003cc80                mp_obj_new_int_from_uint
                0x000000000003ccaa                mp_obj_new_int_from_ll
                0x000000000003ccca                mp_obj_new_int
                0x000000000003ccde                range_attr.lto_priv.0
                0x000000000003cd04                mp_obj_int_unary_op
                0x000000000003ce04                int_from_bytes.lto_priv.0
                0x000000000003ced0                mp_obj_new_int_from_float
                0x000000000003d004                mp_obj_int_make_new.lto_priv.0
                0x000000000003d09c                mp_obj_new_float
                0x000000000003d0c0                float_unary_op.lto_priv.0
                0x000000000003d114                float_make_new.lto_priv.0
                0x000000000003d16c                complex_attr.lto_priv.0
                0x000000000003d196                mp_obj_exception_add_traceback
                0x000000000003d224                mp_obj_is_exception_type
                0x000000000003d250                mp_obj_exception_match
                0x000000000003d274                mp_obj_new_exception_args
                0x000000000003d29c                set_remove.lto_priv.0
                0x000000000003d2b8                mp_obj_new_exception
                0x000000000003d2be                mp_ensure_not_fixed.lto_priv.0
                0x000000000003d2ce                mp_obj_dict_store
                0x000000000003d2ec                dict_update.lto_priv.0
                0x000000000003d3dc                dict_make_new.lto_priv.0
                0x000000000003d424                dict_popitem.lto_priv.0
                0x000000000003d4cc                mp_obj_dict_delete
                0x000000000003d4e4                module_attr.lto_priv.0
                0x000000000003d548                dict_subscr.lto_priv.0
                0x000000000003d578                dict_setdefault.lto_priv.0
                0x000000000003d57c                dict_pop.lto_priv.0
                0x000000000003d580                dict_get.lto_priv.0
                0x000000000003d584                dict_clear.lto_priv.0
                0x000000000003d5b4                mp_obj_dict_get
                0x000000000003d5cc                mp_obj_new_complex
                0x000000000003d5f8                complex_unary_op.lto_priv.0
                0x000000000003d694                complex_make_new.lto_priv.0
                0x000000000003d764                float_print.lto_priv.0
                0x000000000003d7b8                str_endswith.lto_priv.0
                0x000000000003d820                str_startswith.lto_priv.0
                0x000000000003d8a0                mp_obj_str_split
                0x000000000003d9ec                str_rsplit.lto_priv.0
                0x000000000003daf4                new_namedtuple_type.lto_priv.0
                0x000000000003dbb4                find_subbytes
                0x000000000003dd18                str_rstrip.lto_priv.0
                0x000000000003dd20                str_lstrip.lto_priv.0
                0x000000000003dd28                str_strip.lto_priv.0
                0x000000000003de10                str_rindex.lto_priv.0
                0x000000000003de18                str_index.lto_priv.0
                0x000000000003de1e                str_rfind.lto_priv.0
                0x000000000003de26                str_find.lto_priv.0
                0x000000000003de2c                str_join.lto_priv.0
                0x000000000003df38                set_copy.lto_priv.0
                0x000000000003df6a                set_union.lto_priv.0
                0x000000000003df80                set_symmetric_difference.lto_priv.0
                0x000000000003df96                set_intersect.lto_priv.0
                0x000000000003e002                set_diff_update.lto_priv.0
                0x000000000003e014                set_diff.lto_priv.0
                0x000000000003e018                set_binary_op.lto_priv.0
                0x000000000003e138                list_extend.lto_priv.0
                0x000000000003e1b0                list_subscr.lto_priv.0
                0x000000000003e390                list_binary_op.lto_priv.0
                0x000000000003e478                mp_obj_new_fun_bc
                0x000000000003e4d4                mp_obj_exception_make_new
                0x000000000003e5ac                dict_copy.lto_priv.0
                0x000000000003e5f6                closure_call.lto_priv.0
                0x000000000003e684                mp_call_method_self_n_kw
                0x000000000003e6f0                bound_meth_call.lto_priv.0
                0x000000000003e706                mp_obj_new_bytearray
                0x000000000003e726                mp_obj_int_formatted
                0x000000000003e9e0                mp_obj_int_print
                0x000000000003ea1c                mp_obj_new_exception_msg_varg
                0x000000000003eadc                mp_obj_str_format_helper.lto_priv.0
                0x000000000003f0a8                mp_obj_str_binary_op
                0x000000000003f6f8                mp_obj_new_exception_msg
                0x000000000003f750                mp_obj_gen_resume
                0x000000000003f838                gen_instance_close.lto_priv.0
                0x000000000003f8c4                gen_instance_throw.lto_priv.0
                0x000000000003f8ec                gen_instance_send.lto_priv.0
                0x000000000003f8fc                gen_instance_iternext.lto_priv.0
                0x000000000003f9dc                mp_obj_complex_binary_op
                0x000000000003fc04                mp_obj_float_binary_op
                0x000000000003fe98                mp_obj_int_binary_op
                0x0000000000040680                float_binary_op.lto_priv.0
                0x00000000000406b8                complex_binary_op.lto_priv.0
 .text          0x00000000000406c8     0x67a4 /tmp/firmware.elf.fkNs2M.ltrans4.ltrans.o
                0x00000000000406c8                array_unary_op.lto_priv.0
                0x00000000000406f4                mp_generic_unary_op
                0x0000000000040702                mp_identity_getiter
                0x0000000000040704                mp_identity
                0x0000000000040706                mp_obj_get_type
                0x0000000000040728                mp_native_swap_globals.lto_priv.0
                0x0000000000040854                mp_emit_bc_set_source_line
                0x0000000000040856                emit_native_set_source_line.lto_priv.0
                0x0000000000040858                emit_native_last_emit_was_return_value.lto_priv.0
                0x0000000000040b52                mp_emit_bc_adjust_stack_size
                0x0000000000040b6e                mp_emit_bc_end_except_handler
                0x0000000000040b74                mp_emit_bc_start_except_handler
                0x0000000000040b78                mp_emit_bc_for_iter_end
                0x0000000000040b7e                mp_emit_bc_label_assign
                0x0000000000040b9c                mp_emit_bc_last_emit_was_return_value
                0x0000000000040bfc                mp_emit_bc_jump_if_or_pop
                0x0000000000040c0c                mp_emit_bc_pop_jump_if
                0x0000000000040c1c                mp_emit_bc_jump
                0x0000000000040c60                mp_emit_bc_pop_except_jump
                0x0000000000040c68                mp_emit_bc_for_iter
                0x0000000000040c70                mp_emit_bc_setup_block
                0x0000000000040c9c                mp_emit_bc_delete_global
                0x0000000000040ca6                mp_emit_bc_store_global
                0x0000000000040cb2                mp_emit_bc_load_method
                0x0000000000040cc6                mp_emit_bc_load_global
                0x0000000000040cd0                mp_emit_bc_load_const_str
                0x0000000000040cea                mp_emit_bc_yield
                0x0000000000040d06                mp_emit_bc_raise_varargs
                0x0000000000040d10                mp_emit_bc_return_value
                0x0000000000040d24                mp_emit_bc_store_map
                0x0000000000040d2c                mp_emit_bc_binary_op
                0x0000000000040d66                mp_emit_bc_unary_op
                0x0000000000040d6e                mp_emit_bc_get_iter
                0x0000000000040d7c                mp_emit_bc_end_finally
                0x0000000000040d84                mp_emit_bc_rot_three
                0x0000000000040d8a                mp_emit_bc_rot_two
                0x0000000000040d90                mp_emit_bc_pop_top
                0x0000000000040d98                mp_emit_bc_dup_top_two
                0x0000000000040d9e                mp_emit_bc_dup_top
                0x0000000000040da4                mp_emit_bc_load_build_class
                0x0000000000040daa                mp_emit_bc_load_null
                0x0000000000040db0                mp_emit_bc_attr
                0x0000000000040de0                mp_emit_bc_subscr
                0x0000000000040e0a                mp_emit_bc_load_const_small_int
                0x0000000000040e8e                mp_emit_bc_import
                0x0000000000040eca                mp_emit_bc_unwind_jump
                0x0000000000040f5e                mp_emit_bc_start_pass
                0x00000000000410ac                mp_store_global
                0x00000000000410c0                mp_store_name
                0x00000000000410d4                mp_emit_bc_end_pass
                0x0000000000041178                array_append.lto_priv.0
                0x0000000000041260                mp_obj_id
                0x0000000000041278                mp_native_to_obj
                0x00000000000412a8                mp_obj_new_float_from_d.lto_priv.0
                0x00000000000412be                mp_obj_new_float_from_f.lto_priv.0
                0x00000000000412c2                mp_raise_msg
                0x00000000000412d4                mp_import_all
                0x0000000000041318                mp_delete_global
                0x000000000004132c                mp_delete_name
                0x0000000000041340                mp_make_function_from_raw_code
                0x00000000000413a8                mp_emit_bc_load_const_obj
                0x00000000000413ac                mp_emit_bc_load_const_tok
                0x00000000000413c4                mp_emit_bc_with_cleanup
                0x00000000000413ee                array_new.lto_priv.0
                0x0000000000041438                mp_get_buffer
                0x0000000000041454                mp_obj_len_maybe
                0x00000000000414a4                mp_obj_is_true
                0x0000000000041500                mp_obj_get_float_maybe
                0x000000000004156c                mp_obj_get_int_maybe
                0x00000000000415b8                mp_obj_get_type_str
                0x00000000000415c8                mp_obj_subscr
                0x000000000004161c                mp_obj_len
                0x0000000000041644                mp_get_index
                0x00000000000416c0                mp_obj_get_array
                0x000000000004170c                mp_obj_get_float
                0x000000000004173c                mp_obj_get_float_to_d.lto_priv.0
                0x0000000000041750                mp_obj_get_float_to_f.lto_priv.0
                0x0000000000041752                mp_unary_op
                0x0000000000041874                mp_obj_get_int
                0x00000000000418bc                mp_obj_get_int_truncated
                0x00000000000418dc                mp_native_from_obj
                0x0000000000041918                mp_stack_check
                0x000000000004194c                mp_obj_print_helper
                0x0000000000041984                array_print.lto_priv.0
                0x0000000000041a18                mp_obj_print_exception
                0x0000000000041ab8                mp_native_type_from_qstr
                0x0000000000041b10                mp_sched_unlock
                0x0000000000041b40                mp_iternext_allow_raise.part.0
                0x0000000000041b5c                mp_store_attr.part.0
                0x0000000000041b7c                mp_store_attr
                0x0000000000041ba8                mp_raise_NotImplementedError
                0x0000000000041bb8                mp_raise_OSError
                0x0000000000041bd4                mp_raise_TypeError
                0x0000000000041be4                mp_get_buffer_raise
                0x0000000000041bf8                mp_arg_check_num_sig
                0x0000000000041c54                memoryview_make_new.lto_priv.0
                0x0000000000041cc4                mp_raise_ValueError
                0x0000000000041cd4                m_malloc_fail
                0x0000000000041d04                mp_convert_member_lookup
                0x0000000000041db0                mp_call_function_n_kw
                0x0000000000041dd2                mp_native_call_function_n_kw.lto_priv.0
                0x0000000000041ddc                mp_make_raise_obj
                0x0000000000041e18                mp_native_raise.lto_priv.0
                0x0000000000041e58                mp_call_method_n_kw
                0x0000000000041e76                mp_call_function_1
                0x0000000000041e8a                mp_call_function_1_protected
                0x0000000000041ec0                mp_handle_pending.part.0
                0x0000000000041f18                mp_call_function_0
                0x0000000000041f20                mp_parse_compile_execute
                0x0000000000041f98                read_uint.lto_priv.0
                0x0000000000041fc2                read_bytes.lto_priv.0
                0x0000000000042080                mp_parse_num_decimal
                0x0000000000042330                mp_parse_num_integer
                0x0000000000042520                load_raw_code.lto_priv.0
                0x0000000000042990                mp_format_float.part.0
                0x0000000000042d90                need_reg_all.lto_priv.0
                0x0000000000042dc0                adjust_stack.lto_priv.0
                0x0000000000042dd8                emit_native_end_except_handler.lto_priv.0
                0x0000000000042dde                emit_native_for_iter_end.lto_priv.0
                0x0000000000042e14                emit_native_load_null.lto_priv.0
                0x0000000000042e1e                emit_native_load_const_small_int.lto_priv.0
                0x0000000000042e2a                emit_native_load_const_tok.lto_priv.0
                0x0000000000042e7c                emit_native_start_except_handler.lto_priv.0
                0x0000000000042e9c                emit_native_load_const_obj.lto_priv.0
                0x0000000000042ee4                emit_native_pop_top.lto_priv.0
                0x0000000000042ee6                emit_native_adjust_stack_size.lto_priv.0
                0x0000000000042f22                asm_thumb_ldr_rlo_rlo_i5.lto_priv.0
                0x0000000000042f38                asm_thumb_ldr_reg_reg_i12_optimised
                0x0000000000042f68                emit_native_mov_reg_state.lto_priv.0
                0x0000000000043004                asm_thumb_bl_ind
                0x000000000004303c                emit_native_load_build_class.lto_priv.0
                0x0000000000043058                asm_thumb_mov_reg_i32_optimised
                0x00000000000430aa                emit_native_load_const_str.lto_priv.0
                0x00000000000430fe                emit_native_delete_global.lto_priv.0
                0x0000000000043114                emit_native_load_global.lto_priv.0
                0x0000000000043284                emit_native_raise_varargs.lto_priv.0
                0x00000000000432b8                emit_native_unary_op.lto_priv.0
                0x0000000000043310                emit_native_store_global.lto_priv.0
                0x0000000000043418                emit_native_delete_local.lto_priv.0
                0x0000000000043462                emit_native_store_map.lto_priv.0
                0x000000000004349a                emit_native_rot_three.lto_priv.0
                0x0000000000043504                emit_native_make_function.lto_priv.0
                0x000000000004357e                emit_native_store_comp.lto_priv.0
                0x00000000000435d6                emit_native_rot_two.lto_priv.0
                0x000000000004360a                emit_native_dup_top_two.lto_priv.0
                0x0000000000043656                emit_native_attr.lto_priv.0
                0x00000000000436bc                emit_native_import.lto_priv.0
                0x000000000004378e                emit_native_binary_op.lto_priv.0
                0x00000000000439ac                emit_native_dup_top.lto_priv.0
                0x00000000000439e4                emit_native_store_local.lto_priv.0
                0x0000000000043a56                emit_native_load_local.lto_priv.0
                0x0000000000043bdc                emit_native_jump_if_or_pop.lto_priv.0
                0x0000000000043be0                emit_native_pop_jump_if.lto_priv.0
                0x0000000000043be4                emit_native_jump.lto_priv.0
                0x0000000000043c02                emit_native_pop_except_jump.lto_priv.0
                0x0000000000043c32                emit_native_unwind_jump.lto_priv.0
                0x0000000000043d04                emit_native_label_assign.lto_priv.0
                0x0000000000043d6a                emit_native_end_finally.lto_priv.0
                0x0000000000043fda                emit_native_end_pass.lto_priv.0
                0x00000000000441f8                emit_native_start_pass.lto_priv.0
                0x00000000000446e8                emit_native_unpack_ex.lto_priv.0
                0x0000000000044718                emit_native_unpack_sequence.lto_priv.0
                0x0000000000044742                emit_native_get_iter.lto_priv.0
                0x0000000000044844                emit_native_yield.lto_priv.0
                0x00000000000449a8                emit_native_return_value.lto_priv.0
                0x0000000000044aac                emit_native_call_method.lto_priv.0
                0x0000000000044af4                emit_native_call_function.lto_priv.0
                0x0000000000044bd4                emit_native_make_closure.lto_priv.0
                0x0000000000044c38                emit_native_build.lto_priv.0
                0x0000000000044cc4                emit_native_for_iter.lto_priv.0
                0x0000000000044d08                emit_native_with_cleanup.lto_priv.0
                0x0000000000044e42                emit_native_setup_block.lto_priv.0
                0x0000000000044f16                emit_native_subscr.lto_priv.0
                0x0000000000045470                emit_native_load_method.lto_priv.0
                0x00000000000454b4                emit_write_bytecode_byte_uint.lto_priv.0
                0x000000000004551a                mp_emit_bc_call_method
                0x0000000000045532                mp_emit_bc_call_function
                0x0000000000045548                mp_emit_bc_unpack_ex
                0x000000000004555a                mp_emit_bc_unpack_sequence
                0x0000000000045562                mp_emit_bc_store_comp
                0x0000000000045584                mp_emit_bc_build
                0x0000000000045598                mp_emit_bc_delete_local
                0x00000000000455a4                mp_emit_bc_store_local
                0x00000000000455d2                mp_emit_bc_load_local
                0x0000000000045628                mp_emit_bc_make_closure
                0x0000000000045654                mp_emit_bc_make_function
                0x000000000004566e                array_subscr.lto_priv.0
                0x00000000000458ac                array_extend.lto_priv.0
                0x0000000000045918                array_binary_op.lto_priv.0
                0x0000000000045a48                mp_make_closure_from_raw_code
                0x0000000000045a98                mp_obj_equal
                0x0000000000045bc4                mp_set_lookup
                0x0000000000045d00                mp_map_lookup
                0x0000000000045eec                mp_arg_parse_all
                0x0000000000045fac                mp_arg_parse_all_kw_array
                0x0000000000045fd6                mp_import_name
                0x0000000000046024                mp_load_method_maybe
                0x0000000000046088                mp_import_from
                0x0000000000046150                mp_iternext
                0x00000000000461c8                mp_native_iternext.lto_priv.0
                0x00000000000461d0                mp_getiter
                0x0000000000046300                bytearray_make_new.lto_priv.0
                0x0000000000046364                array_make_new.lto_priv.0
                0x0000000000046398                mp_native_getiter.lto_priv.0
                0x00000000000463b6                mp_unpack_ex
                0x00000000000464c4                mp_unpack_sequence
                0x0000000000046560                mp_load_method_protected
                0x00000000000465a4                mp_load_method
                0x00000000000465f4                mp_resume
                0x00000000000466e4                mp_native_yield_from.lto_priv.0
                0x0000000000046770                mp_load_attr
                0x0000000000046798                mp_call_prepare_args_n_kw_var.lto_priv.0
                0x0000000000046a04                mp_call_method_n_kw_var
                0x0000000000046a28                mp_load_build_class
                0x0000000000046a54                mp_load_global
                0x0000000000046ab4                mp_load_name
                0x0000000000046ae4                mp_binary_op.part.0
                0x0000000000046e2c                mp_binary_op
 .text          0x0000000000046e6c     0x5cb8 /tmp/firmware.elf.fkNs2M.ltrans5.ltrans.o
                0x0000000000047286                mp_reader_mem_readbyte.lto_priv.0
                0x000000000004729a                unichar_islower
                0x00000000000472b0                unichar_toupper
                0x00000000000472c0                unichar_isupper
                0x00000000000472d4                unichar_tolower
                0x00000000000472e4                unichar_isdigit
                0x00000000000472f8                unichar_isalpha
                0x000000000004730c                unichar_isspace
                0x00000000000473f4                nlr_pop
                0x00000000000474b0                plat_print_strn.lto_priv.0
                0x00000000000474b8                mpn_cmp.part.0.lto_priv.0
                0x00000000000474e6                mpz_as_float
                0x0000000000047524                mpz_as_bytes
                0x000000000004759c                mpz_hash
                0x00000000000475c2                mpn_add.lto_priv.0
                0x0000000000047618                mpn_shr.lto_priv.0
                0x0000000000047654                mpn_remove_trailing_zeros.lto_priv.0
                0x000000000004766e                mpn_sub.lto_priv.0
                0x00000000000476b8                unichar_xdigit_value
                0x00000000000476c6                mp_print_strn
                0x0000000000047780                mp_print_float
                0x00000000000478e2                vstr_cut_out_bytes
                0x000000000004790e                qstr_pool_info
                0x00000000000479e0                find_qstr.lto_priv.0
                0x00000000000479fc                qstr_data
                0x0000000000047a0a                qstr_str
                0x0000000000047a14                qstr_hash
                0x0000000000047a1e                qstr_compute_hash
                0x0000000000047a40                gc_free
                0x0000000000047a54                mp_reader_mem_close.lto_priv.0
                0x0000000000047a6a                mpz_free.lto_priv.0
                0x0000000000047a80                mp_print_mp_int
                0x0000000000047c94                vstr_clear
                0x0000000000047cac                gc_info
                0x0000000000047da4                gc_mark_subtree.lto_priv.0
                0x0000000000047e58                gc_collect_end
                0x0000000000048064                gc_collect_root
                0x00000000000480cc                gc_alloc
                0x00000000000482c8                gc_realloc
                0x00000000000484b8                m_realloc
                0x000000000004a110                mpz_need_dig.lto_priv.0
                0x000000000004a13a                mpz_set_from_int.part.0
                0x000000000004a174                mpz_add_inpl
                0x000000000004a1e4                mpz_set_from_ll
                0x000000000004a23c                mpz_set
                0x000000000004a264                mpz_divmod_inpl
                0x000000000004a4fa                vstr_ensure_extra.lto_priv.0
                0x000000000004a534                vstr_add_strn
                0x000000000004a558                vstr_add_byte
                0x000000000004a570                vstr_extend
                0x000000000004a5a0                vstr_null_terminated_str
                0x000000000004a5be                m_malloc_maybe
                0x000000000004a5c4                m_malloc
                0x000000000004a65c                mp_compile_to_raw_code.lto_priv.0
                0x000000000004b5c8                mpz_clone.lto_priv.0
                0x000000000004b610                mpz_mul_inpl
                0x000000000004b700                vstr_init
                0x000000000004b722                vstr_init_len
                0x000000000004b732                nlr_push_tail
                0x000000000004b744                mp_vprintf
                0x000000000004b9ec                mp_printf
                0x000000000004ba08                gc_dump_info
                0x000000000004ba48                vstr_printf
                0x000000000004ba70                mp_print_str
                0x000000000004ba90                vstr_add_str
                0x000000000004baac                gc_dump_alloc_table
                0x000000000004c1bc                mp_lexer_new
                0x000000000004c23a                qstr_find_strn
                0x000000000004c298                qstr_from_strn
                0x000000000004c718                mp_parse
                0x000000000004caf8                mp_lexer_new_from_file
 .text          0x000000000004cb24        0x0 build-pinetime-s132/py/nlrx86.o
 .text          0x000000000004cb24        0x0 build-pinetime-s132/py/nlrx64.o
 .text          0x000000000004cb24       0x78 build-pinetime-s132/py/nlrthumb.o
                0x000000000004cb24                nlr_push
                0x000000000004cb54                nlr_jump
 .text          0x000000000004cb9c        0x0 build-pinetime-s132/py/nlrpowerpc.o
 .text          0x000000000004cb9c        0x0 build-pinetime-s132/py/nlrxtensa.o
 .text          0x000000000004cb9c        0x0 build-pinetime-s132/py/nlrsetjmp.o
 .text          0x000000000004cb9c      0x378 /opt/gcc-arm-none-eabi-9-2019-q4-major/bin/../lib/gcc/arm-none-eabi/9.2.1/thumb/v7e-m+fp/hard//libgcc.a(_arm_addsubdf3.o)
                0x000000000004cb9c                __aeabi_drsub
                0x000000000004cba4                __aeabi_dsub
                0x000000000004cba4                __subdf3
                0x000000000004cba8                __adddf3
                0x000000000004cba8                __aeabi_dadd
                0x000000000004ce20                __aeabi_ui2d
                0x000000000004ce20                __floatunsidf
                0x000000000004ce40                __floatsidf
                0x000000000004ce40                __aeabi_i2d
                0x000000000004ce64                __extendsfdf2
                0x000000000004ce64                __aeabi_f2d
                0x000000000004cea8                __aeabi_ul2d
                0x000000000004cea8                __floatundidf
                0x000000000004ceb8                __floatdidf
                0x000000000004ceb8                __aeabi_l2d
 .text          0x000000000004cf14       0xa0 /opt/gcc-arm-none-eabi-9-2019-q4-major/bin/../lib/gcc/arm-none-eabi/9.2.1/thumb/v7e-m+fp/hard//libgcc.a(_arm_truncdfsf2.o)
                0x000000000004cf14                __aeabi_d2f
                0x000000000004cf14                __truncdfsf2
 .text          0x000000000004cfb4       0x28 /opt/gcc-arm-none-eabi-9-2019-q4-major/bin/../lib/gcc/arm-none-eabi/9.2.1/thumb/v7e-m+fp/hard//libgcc.a(_popcountsi2.o)
                0x000000000004cfb4                __popcountsi2
 *(.text*)
 *(.rodata)
 .rodata        0x000000000004cfdc     0x20d0 /tmp/firmware.elf.fkNs2M.ltrans0.ltrans.o
                0x000000000004cff8                mp_const_none_obj
                0x000000000004d034                mp_const_true_obj
                0x000000000004d03c                mp_const_false_obj
                0x000000000004d064                machine_hard_pwm_type
                0x000000000004d0a0                machine_hard_spi_type
                0x000000000004d0dc                mp_type_SystemExit
                0x000000000004d118                mp_type_IndexError
                0x000000000004d154                mp_type_OSError
                0x000000000004d190                ubluepy_characteristic_type
                0x000000000004d1cc                ubluepy_uuid_type
                0x000000000004d214                ubluepy_constants_ad_types_locals_dict_table.lto_priv.0
                0x000000000004d314                ubluepy_service_type
                0x000000000004d350                pin_board_pins_locals_dict_table.lto_priv.0
                0x000000000004d430                ubluepy_scan_entry_type
                0x000000000004d49c                machine_temp_type
                0x000000000004d4e0                mp_type_int
                0x000000000004d51c                mp_type_str
                0x000000000004d568                mp_type_TypeError
                0x000000000004d604                mp_type_ValueError
                0x000000000004d640                mp_type_bytes
                0x000000000004da80                machine_board_pin_obj
                0x000000000004dcb0                pin_type
                0x000000000004dcec                pin_board_pins_locals_dict
                0x000000000004dcfc                pin_cpu_pins_locals_dict
                0x000000000004decc                machine_timer_obj.lto_priv.0
                0x000000000004df68                mp_plat_print
                0x000000000004df70                mp_module___main__
                0x000000000004df98                mp_machine_spi_write_readinto_obj
                0x000000000004dfa0                mp_machine_spi_write_obj
                0x000000000004dfa8                mp_machine_spi_readinto_obj
                0x000000000004dfb4                mp_machine_spi_read_obj
                0x000000000004dfc0                machine_spi_deinit_obj.lto_priv.0
                0x000000000004dfc8                machine_spi_init_obj.lto_priv.0
                0x000000000004dfd4                machine_spi_locals_dict_table.lto_priv.0
                0x000000000004e014                machine_spi_locals_dict.lto_priv.0
                0x000000000004e024                machine_hard_spi_p.lto_priv.0
                0x000000000004e030                machine_i2c_writeto_mem_obj.lto_priv.0
                0x000000000004e03c                machine_i2c_readfrom_mem_into_obj
                0x000000000004e048                machine_i2c_readfrom_mem_obj
                0x000000000004e054                machine_i2c_writevto_obj.lto_priv.0
                0x000000000004e060                machine_i2c_writeto_obj.lto_priv.0
                0x000000000004e06c                machine_i2c_readfrom_into_obj
                0x000000000004e078                machine_i2c_readfrom_obj
                0x000000000004e084                machine_i2c_write_obj
                0x000000000004e08c                machine_i2c_readinto_obj
                0x000000000004e098                machine_i2c_stop_obj
                0x000000000004e0a0                machine_i2c_start_obj
                0x000000000004e0a8                machine_i2c_scan_obj
                0x000000000004e0b0                machine_i2c_init_obj
                0x000000000004e0bc                machine_i2c_locals_dict_table.lto_priv.0
                0x000000000004e124                mp_machine_soft_i2c_locals_dict
                0x000000000004e188                mp_type_fun_builtin_0
                0x000000000004e1c4                mp_machine_adc_battery_level_obj.lto_priv.0
                0x000000000004e1cc                mp_machine_adc_value_obj.lto_priv.0
                0x000000000004e1d4                mp_machine_adc_read_u16_obj.lto_priv.0
                0x000000000004e1dc                machine_adc_locals_dict_table.lto_priv.0
                0x000000000004e1f4                machine_adc_locals_dict.lto_priv.0
                0x000000000004e204                machine_adc_type
                0x000000000004e240                pin_cpu_pins_locals_dict_table.lto_priv.0
                0x000000000004e320                pin_map_dict_fun_obj.lto_priv.0
                0x000000000004e32c                pin_mapper_fun_obj.lto_priv.0
                0x000000000004e338                pin_cpu_pins_obj_type
                0x000000000004e374                pin_board_pins_obj_type
                0x000000000004e3b0                pin_map_dict_obj.lto_priv.0
                0x000000000004e3b8                pin_mapper_obj.lto_priv.0
                0x000000000004e3c0                pin_irq_obj.lto_priv.0
                0x000000000004e3cc                pin_af_obj.lto_priv.0
                0x000000000004e3d4                pin_pull_obj.lto_priv.0
                0x000000000004e3dc                pin_mode_obj.lto_priv.0
                0x000000000004e3e4                pin_pin_obj.lto_priv.0
                0x000000000004e3ec                pin_port_obj.lto_priv.0
                0x000000000004e3f4                pin_af_list_obj.lto_priv.0
                0x000000000004e3fc                pin_names_obj.lto_priv.0
                0x000000000004e404                pin_name_obj.lto_priv.0
                0x000000000004e40c                pin_high_obj.lto_priv.0
                0x000000000004e414                pin_low_obj.lto_priv.0
                0x000000000004e41c                pin_on_obj.lto_priv.0
                0x000000000004e424                pin_off_obj.lto_priv.0
                0x000000000004e42c                pin_value_obj.lto_priv.0
                0x000000000004e438                pin_init_obj
                0x000000000004e444                pin_locals_dict_table.lto_priv.0
                0x000000000004e514                pin_locals_dict.lto_priv.0
                0x000000000004e524                machine_timer_deinit_obj.lto_priv.0
                0x000000000004e52c                machine_timer_stop_obj.lto_priv.0
                0x000000000004e534                machine_timer_start_obj.lto_priv.0
                0x000000000004e53c                machine_timer_period_obj.lto_priv.0
                0x000000000004e544                machine_timer_locals_dict_table.lto_priv.0
                0x000000000004e57c                machine_timer_locals_dict.lto_priv.0
                0x000000000004e58c                machine_timer_type
                0x000000000004e5c8                machine_rtc_deinit_obj.lto_priv.0
                0x000000000004e5d0                machine_rtc_counter_obj.lto_priv.0
                0x000000000004e5d8                machine_rtc_stop_obj.lto_priv.0
                0x000000000004e5e0                machine_rtc_start_obj.lto_priv.0
                0x000000000004e5e8                machine_rtc_locals_dict_table.lto_priv.0
                0x000000000004e620                machine_rtc_locals_dict.lto_priv.0
                0x000000000004e640                machine_rtcounter_type
                0x000000000004e694                mp_machine_pwm_duty_obj.lto_priv.0
                0x000000000004e6a0                mp_machine_pwm_period_obj.lto_priv.0
                0x000000000004e6ac                mp_machine_pwm_freq_obj.lto_priv.0
                0x000000000004e6b8                machine_pwm_deinit_obj.lto_priv.0
                0x000000000004e6c0                machine_pwm_init_obj.lto_priv.0
                0x000000000004e6cc                machine_pwm_locals_dict_table.lto_priv.0
                0x000000000004e744                machine_pwm_locals_dict.lto_priv.0
                0x000000000004e754                mp_machine_temp_read_obj.lto_priv.0
                0x000000000004e760                machine_temp_locals_dict_table.lto_priv.0
                0x000000000004e768                machine_temp_locals_dict.lto_priv.0
                0x000000000004e7dc                mp_type_attrtuple
                0x000000000004e818                mp_type_bool
                0x000000000004e854                ubluepy_service_get_uuid_obj.lto_priv.0
                0x000000000004e85c                ubluepy_service_get_chars_obj.lto_priv.0
                0x000000000004e864                ubluepy_service_add_char_obj.lto_priv.0
                0x000000000004e86c                ubluepy_service_get_char_obj.lto_priv.0
                0x000000000004e874                ubluepy_service_locals_dict_table.lto_priv.0
                0x000000000004e8a4                ubluepy_service_locals_dict.lto_priv.0
                0x000000000004e8b4                ubluepy_characteristic_get_properties_obj.lto_priv.0
                0x000000000004e8bc                ubluepy_characteristic_get_uuid_obj.lto_priv.0
                0x000000000004e8c4                ubluepy_characteristic_write_obj.lto_priv.0
                0x000000000004e8d0                ubluepy_characteristic_read_obj.lto_priv.0
                0x000000000004e8d8                ubluepy_characteristic_locals_dict_table.lto_priv.0
                0x000000000004e940                ubluepy_characteristic_locals_dict.lto_priv.0
                0x000000000004e950                ubluepy_uuid_bin_val_obj.lto_priv.0
                0x000000000004e958                ubluepy_uuid_locals_dict_table.lto_priv.0
                0x000000000004e960                ubluepy_uuid_locals_dict.lto_priv.0
                0x000000000004e970                ubluepy_scan_entry_get_scan_data_obj.lto_priv.0
                0x000000000004e978                bluepy_scan_entry_get_rssi_obj.lto_priv.0
                0x000000000004e980                bluepy_scan_entry_get_addr_type_obj.lto_priv.0
                0x000000000004e988                bluepy_scan_entry_get_addr_obj.lto_priv.0
                0x000000000004e990                ubluepy_scan_entry_locals_dict_table.lto_priv.0
                0x000000000004e9b0                ubluepy_scan_entry_locals_dict.lto_priv.0
                0x000000000004e9c0                tuple_index_obj.lto_priv.0
                0x000000000004e9cc                tuple_count_obj.lto_priv.0
                0x000000000004e9d4                tuple_locals_dict_table.lto_priv.0
                0x000000000004e9e4                tuple_locals_dict.lto_priv.0
                0x000000000004e9f4                mp_type_tuple
                0x000000000004ea30                ubluepy_constants_ad_types_locals_dict.lto_priv.0
                0x000000000004ea40                mp_type_Exception
                0x000000000004ea7c                mp_type_LookupError
                0x000000000004eab8                mp_type_module
                0x000000000004eaf4                mp_type_BaseException
                0x000000000004eb30                mp_type_NoneType
                0x000000000004eb6c                mp_type_fun_builtin_3
                0x000000000004eba8                dict_fromkeys_fun_obj.lto_priv.0
                0x000000000004ebb4                mp_op_delitem_obj
                0x000000000004ebbc                mp_op_setitem_obj
                0x000000000004ebc4                mp_op_getitem_obj
                0x000000000004ebcc                dict_values_obj.lto_priv.0
                0x000000000004ebd4                dict_update_obj.lto_priv.0
                0x000000000004ebe0                dict_setdefault_obj.lto_priv.0
                0x000000000004ebec                dict_popitem_obj.lto_priv.0
                0x000000000004ebf4                dict_pop_obj.lto_priv.0
                0x000000000004ec00                dict_keys_obj.lto_priv.0
                0x000000000004ec08                dict_items_obj.lto_priv.0
                0x000000000004ec10                dict_get_obj.lto_priv.0
                0x000000000004ec1c                dict_fromkeys_obj.lto_priv.0
                0x000000000004ec24                dict_copy_obj.lto_priv.0
                0x000000000004ec2c                dict_clear_obj.lto_priv.0
                0x000000000004ec34                mp_type_fun_builtin_1
                0x000000000004ec70                mp_type_fun_builtin_2
                0x000000000004ecac                mp_type_fun_builtin_var
                0x000000000004ece8                int_from_bytes_fun_obj.lto_priv.0
                0x000000000004ecf4                mp_type_classmethod
                0x000000000004ed30                dict_locals_dict_table.lto_priv.0
                0x000000000004eda0                str_islower_obj
                0x000000000004eda8                str_isupper_obj
                0x000000000004edb0                str_isdigit_obj
                0x000000000004edb8                str_isalpha_obj
                0x000000000004edc0                str_isspace_obj
                0x000000000004edc8                str_upper_obj
                0x000000000004edd0                str_lower_obj
                0x000000000004edd8                str_count_obj
                0x000000000004ede4                str_replace_obj
                0x000000000004edf0                str_format_obj
                0x000000000004edfc                str_rstrip_obj
                0x000000000004ee08                str_lstrip_obj
                0x000000000004ee14                str_strip_obj
                0x000000000004ee20                str_endswith_obj
                0x000000000004ee2c                str_startswith_obj
                0x000000000004ee38                str_rsplit_obj
                0x000000000004ee44                str_split_obj
                0x000000000004ee50                str_join_obj
                0x000000000004ee58                str_rindex_obj
                0x000000000004ee64                str_index_obj
                0x000000000004ee70                str_rfind_obj
                0x000000000004ee7c                str_find_obj
                0x000000000004ee88                str_encode_obj
                0x000000000004ee94                bytes_decode_obj
                0x000000000004eea0                int_to_bytes_obj.lto_priv.0
                0x000000000004eeac                int_from_bytes_obj.lto_priv.0
                0x000000000004eeb4                dict_locals_dict.lto_priv.0
                0x000000000004eec4                str8_locals_dict_table.lto_priv.0
                0x000000000004ef84                int_locals_dict_table.lto_priv.0
                0x000000000004ef94                mp_type_dict
                0x000000000004efd0                str8_locals_dict.lto_priv.0
                0x000000000004efe0                int_locals_dict.lto_priv.0
                0x000000000004eff0                mp_type_type
                0x000000000004f02c                mp_const_empty_tuple_obj
                0x000000000004f034                ubluepy_constants_ad_types_type
                0x000000000004f070                mp_type_float
 .rodata        0x000000000004f0ac     0xe67c /tmp/firmware.elf.fkNs2M.ltrans1.ltrans.o
                0x000000000004f0ac                attr.lto_priv.0
                0x000000000004f12c                mp_type_bytearray
                0x000000000004f170                bma42x_BMA42X_type.lto_priv.0
                0x000000000004f228                machine_i2c_type
                0x000000000004f264                mp_type_list
                0x000000000004f2a0                mp_type_stringio
                0x000000000004f340                mp_type_polymorph_iter
                0x000000000004f388                mp_qstr_frozen_const_pool
                0x000000000004fc04                mp_type_KeyboardInterrupt
                0x000000000004fc50                mp_type_vfs_lfs2_textio
                0x000000000004fc8c                mp_type_vfs_lfs2_fileio
                0x000000000004fcc8                mp_frozen_mpy_names
                0x000000000004ff80                mp_frozen_str_names
                0x000000000004ff94                mp_type_vfs_lfs2
                0x000000000004fff0                mp_const_empty_map
                0x0000000000055cfc                mp_fun_table
                0x000000000005ab74                list_sort_obj.lto_priv.0
                0x000000000005ab80                list_reverse_obj.lto_priv.0
                0x000000000005ab88                list_remove_obj.lto_priv.0
                0x000000000005ab90                list_pop_obj.lto_priv.0
                0x000000000005ab9c                list_insert_obj.lto_priv.0
                0x000000000005aba4                list_index_obj.lto_priv.0
                0x000000000005abb0                list_extend_obj.lto_priv.0
                0x000000000005abb8                list_count_obj.lto_priv.0
                0x000000000005abc0                list_copy_obj.lto_priv.0
                0x000000000005abc8                list_clear_obj.lto_priv.0
                0x000000000005abd0                list_append_obj.lto_priv.0
                0x000000000005abd8                list_locals_dict_table.lto_priv.0
                0x000000000005ac30                list_locals_dict.lto_priv.0
                0x000000000005ac40                stringio___exit___obj.lto_priv.0
                0x000000000005ac4c                stringio_getvalue_obj.lto_priv.0
                0x000000000005ac54                stringio_locals_dict_table.lto_priv.0
                0x000000000005aca4                stringio_locals_dict.lto_priv.0
                0x000000000005acb4                stringio_stream_p.lto_priv.0
                0x000000000005acc4                mp_machine_soft_i2c_p.lto_priv.0
                0x000000000005acdc                mp_vfs_lfs2_mkfs_fun_obj.lto_priv.0
                0x000000000005ace8                mp_type_staticmethod
                0x000000000005ad24                mp_vfs_lfs2_umount_obj.lto_priv.0
                0x000000000005ad2c                mp_vfs_lfs2_mount_obj.lto_priv.0
                0x000000000005ad34                mp_vfs_lfs2_statvfs_obj.lto_priv.0
                0x000000000005ad3c                mp_vfs_lfs2_stat_obj.lto_priv.0
                0x000000000005ad44                mp_vfs_lfs2_rename_obj.lto_priv.0
                0x000000000005ad4c                mp_vfs_lfs2_remove_obj.lto_priv.0
                0x000000000005ad54                mp_vfs_lfs2_getcwd_obj.lto_priv.0
                0x000000000005ad5c                mp_vfs_lfs2_chdir_obj.lto_priv.0
                0x000000000005ad64                mp_vfs_lfs2_rmdir_obj.lto_priv.0
                0x000000000005ad6c                mp_vfs_lfs2_mkdir_obj.lto_priv.0
                0x000000000005ad74                mp_vfs_lfs2_ilistdir_obj.lto_priv.0
                0x000000000005ad80                mp_vfs_lfs2_open_obj.lto_priv.0
                0x000000000005ad88                mp_vfs_lfs2_mkfs_obj.lto_priv.0
                0x000000000005ad90                mp_vfs_lfs2_locals_dict_table.lto_priv.0
                0x000000000005adf8                mp_vfs_lfs2_locals_dict.lto_priv.0
                0x000000000005ae08                mp_vfs_lfs2_proto.lto_priv.0
                0x000000000005ae0c                array_extend_obj.lto_priv.0
                0x000000000005ae14                array_append_obj.lto_priv.0
                0x000000000005ae1c                array_locals_dict_table.lto_priv.0
                0x000000000005ae34                array_locals_dict.lto_priv.0
                0x000000000005ae44                mp_vfs_lfs2_file___exit___obj.lto_priv.0
                0x000000000005ae50                mp_identity_obj
                0x000000000005ae58                mp_stream_tell_obj
                0x000000000005ae60                mp_stream_seek_obj
                0x000000000005ae6c                mp_stream_close_obj
                0x000000000005ae74                mp_stream_flush_obj
                0x000000000005ae7c                mp_stream_write_obj
                0x000000000005ae88                mp_stream_unbuffered_readlines_obj
                0x000000000005ae90                mp_stream_unbuffered_readline_obj
                0x000000000005ae9c                mp_stream_readinto_obj
                0x000000000005aea8                mp_stream_read_obj
                0x000000000005aeb4                mp_vfs_lfs2_file_locals_dict_table.lto_priv.0
                0x000000000005af14                mp_vfs_lfs2_textio_stream_p.lto_priv.0
                0x000000000005af24                mp_vfs_lfs2_file_locals_dict.lto_priv.0
                0x000000000005af34                mp_vfs_lfs2_fileio_stream_p.lto_priv.0
                0x000000000005af44                ubluepy_peripheral_add_service_obj.lto_priv.0
                0x000000000005af4c                ubluepy_peripheral_disconnect_obj.lto_priv.0
                0x000000000005af54                ubluepy_peripheral_advertise_stop_obj.lto_priv.0
                0x000000000005af5c                ubluepy_peripheral_advertise_obj.lto_priv.0
                0x000000000005af68                ubluepy_peripheral_connect_obj.lto_priv.0
                0x000000000005af74                ubluepy_peripheral_get_services_obj.lto_priv.0
                0x000000000005af7c                ubluepy_peripheral_set_conn_handler_obj.lto_priv.0
                0x000000000005af84                ubluepy_peripheral_set_notif_handler_obj.lto_priv.0
                0x000000000005af8c                ubluepy_peripheral_with_delegate_obj.lto_priv.0
                0x000000000005af94                ubluepy_peripheral_locals_dict_table.lto_priv.0
                0x000000000005afdc                ubluepy_peripheral_locals_dict.lto_priv.0
                0x000000000005afec                ubluepy_peripheral_type
                0x000000000005b0c4                mp_qstr_const_pool
                0x000000000005bda0                bma42x_BMA42X_write_config_file_obj.lto_priv.0
                0x000000000005bda8                bma42x_BMA42X_step_counter_set_watermark_obj.lto_priv.0
                0x000000000005bdb0                bma42x_BMA42X_step_counter_output_obj.lto_priv.0
                0x000000000005bdb8                bma42x_BMA42X_step_detector_enable_obj.lto_priv.0
                0x000000000005bdc0                bma42x_BMA42X_set_reg_obj.lto_priv.0
                0x000000000005bdc8                bma42x_BMA42X_set_offset_comp_obj.lto_priv.0
                0x000000000005bdd0                bma42x_BMA42X_set_command_register_obj.lto_priv.0
                0x000000000005bdd8                bma42x_BMA42X_set_no_mot_config_obj.lto_priv.0
                0x000000000005bde4                bma42x_BMA42X_set_any_mot_config_obj.lto_priv.0
                0x000000000005bdf0                bma42x_BMA42X_set_accel_enable_obj.lto_priv.0
                0x000000000005bdf8                bma42x_BMA42X_set_accel_config_obj.lto_priv.0
                0x000000000005be04                bma42x_BMA42X_read_int_status_obj.lto_priv.0
                0x000000000005be0c                bma42x_BMA42X_read_accel_xyz_obj.lto_priv.0
                0x000000000005be14                bma42x_BMA42X_map_interrupt_obj.lto_priv.0
                0x000000000005be20                bma42x_BMA42X_init_obj.lto_priv.0
                0x000000000005be28                bma42x_BMA42X_get_temperature_obj.lto_priv.0
                0x000000000005be30                bma42x_BMA42X_get_reg_obj.lto_priv.0
                0x000000000005be38                bma42x_BMA42X_get_offset_comp_obj.lto_priv.0
                0x000000000005be40                bma42x_BMA42X_feature_enable_obj.lto_priv.0
                0x000000000005be48                bma42x_BMA42X_debug_obj.lto_priv.0
                0x000000000005be50                bma42x_BMA42X_locals_dict_table.lto_priv.0
                0x000000000005bef0                bma42x_BMA42X_locals_dict.lto_priv.0
 .rodata        0x000000000005d728     0x226c /tmp/firmware.elf.fkNs2M.ltrans2.ltrans.o
                0x000000000005d728                mp_type_super
                0x000000000005d764                mp_type_object
                0x000000000005d7a0                mp_type_RuntimeError
                0x000000000005d7dc                mp_type_NotImplementedError
                0x000000000005d818                mp_sys_stdout_obj
                0x000000000005d828                mp_module_builtins
                0x000000000005d83c                mp_unary_op_method_name
                0x000000000005d846                mp_binary_op_method_name
                0x000000000005d86c                mp_type_StopIteration
                0x000000000005d8a8                mp_type_property
                0x000000000005d8e4                mp_type_AttributeError
                0x000000000005d974                mp_type_fun_bc
                0x000000000005d9b0                mp_type_bound_meth.lto_priv.0
                0x000000000005d9ec                mp_type_EOFError
                0x000000000005da28                mp_type_slice
                0x000000000005da64                mp_const_empty_bytes_obj
                0x000000000005dd40                mp_builtin_module_table.lto_priv.0
                0x000000000005dde0                mp_type_ZeroDivisionError
                0x000000000005de1c                mp_type_ImportError
                0x000000000005de58                mp_builtin___build_class___obj
                0x000000000005de64                mp_type_NameError
                0x000000000005dea0                mp_type_set
                0x000000000005dedc                mp_type_fun_native.lto_priv.0
                0x000000000005df18                mp_type_native_gen_wrap
                0x000000000005df54                mp_type_gen_wrap
                0x000000000005df90                closure_type
                0x000000000005dfcc                mp_type_GeneratorExit
                0x000000000005e008                mp_const_GeneratorExit_obj
                0x000000000005e018                ubluepy_delegate_handle_notif_obj.lto_priv.0
                0x000000000005e020                ubluepy_delegate_handle_conn_obj.lto_priv.0
                0x000000000005e028                ubluepy_scanner_scan_obj.lto_priv.0
                0x000000000005e030                ubluepy_constants_locals_dict_table.lto_priv.0
                0x000000000005e068                ubluepy_delegate_locals_dict_table.lto_priv.0
                0x000000000005e078                ubluepy_scanner_locals_dict_table.lto_priv.0
                0x000000000005e080                ubluepy_constants_locals_dict.lto_priv.0
                0x000000000005e090                ubluepy_delegate_locals_dict.lto_priv.0
                0x000000000005e0a0                ubluepy_scanner_locals_dict.lto_priv.0
                0x000000000005e0b0                machine_mem_type
                0x000000000005e0ec                maxsize_dig.lto_priv.0
                0x000000000005e0f0                impl_fields.lto_priv.0
                0x000000000005e0fc                mp_sys_implementation_version_info_obj.lto_priv.0
                0x000000000005e110                bytesio_stream_p.lto_priv.0
                0x000000000005e120                mp_type_array
                0x000000000005e15c                mod_random_uniform_obj.lto_priv.0
                0x000000000005e164                mod_random_random_obj.lto_priv.0
                0x000000000005e16c                mod_random_choice_obj.lto_priv.0
                0x000000000005e174                mod_random_randint_obj.lto_priv.0
                0x000000000005e17c                mod_random_randrange_obj.lto_priv.0
                0x000000000005e188                mod_random_getrandbits_obj.lto_priv.0
                0x000000000005e190                ubluepy_uart_enabled_obj.lto_priv.0
                0x000000000005e198                ubluepy_uart_connected_obj.lto_priv.0
                0x000000000005e1a0                ubluepy_constants_type
                0x000000000005e1dc                ubluepy_delegate_type
                0x000000000005e218                ubluepy_scanner_type
                0x000000000005e254                ble_obj_address_obj.lto_priv.0
                0x000000000005e25c                ble_obj_enabled_obj.lto_priv.0
                0x000000000005e264                ble_obj_disable_obj.lto_priv.0
                0x000000000005e26c                ble_obj_enable_obj.lto_priv.0
                0x000000000005e274                mp_vfs_umount_obj
                0x000000000005e27c                mp_vfs_mount_obj
                0x000000000005e288                mp_vfs_statvfs_obj
                0x000000000005e290                mp_vfs_stat_obj
                0x000000000005e298                mp_vfs_rmdir_obj
                0x000000000005e2a0                mp_vfs_rename_obj
                0x000000000005e2a8                mp_vfs_remove_obj
                0x000000000005e2b0                mp_vfs_mkdir_obj
                0x000000000005e2b8                mp_vfs_listdir_obj
                0x000000000005e2c4                mp_vfs_getcwd_obj
                0x000000000005e2cc                mp_vfs_chdir_obj
                0x000000000005e2d4                os_uname_obj.lto_priv.0
                0x000000000005e2dc                mp_utime_sleep_us_obj
                0x000000000005e2e4                mp_utime_sleep_ms_obj
                0x000000000005e2ec                mp_utime_sleep_obj
                0x000000000005e2f4                mp_utime_mktime_obj
                0x000000000005e2fc                mp_utime_localtime_obj
                0x000000000005e304                machine_mem32_obj
                0x000000000005e30c                machine_mem16_obj
                0x000000000005e314                machine_mem8_obj
                0x000000000005e31c                machine_reset_cause_obj.lto_priv.0
                0x000000000005e324                machine_deepsleep_obj
                0x000000000005e32c                machine_lightsleep_obj
                0x000000000005e334                machine_disable_irq_obj
                0x000000000005e33c                machine_enable_irq_obj
                0x000000000005e344                machine_soft_reset_obj
                0x000000000005e34c                machine_starve_wdt_obj
                0x000000000005e354                machine_enter_serial_dfu_obj
                0x000000000005e35c                machine_enter_ota_dfu_obj
                0x000000000005e364                machine_reset_obj
                0x000000000005e36c                machine_info_obj
                0x000000000005e378                pyb_set_repl_info_obj
                0x000000000005e380                mod_ujson_loads_obj.lto_priv.0
                0x000000000005e388                mod_ujson_load_obj.lto_priv.0
                0x000000000005e390                mod_ujson_dumps_obj.lto_priv.0
                0x000000000005e398                mod_ujson_dump_obj.lto_priv.0
                0x000000000005e3a0                gc_threshold_obj
                0x000000000005e3ac                gc_mem_alloc_obj
                0x000000000005e3b4                gc_mem_free_obj
                0x000000000005e3bc                gc_isenabled_obj
                0x000000000005e3c4                gc_enable_obj
                0x000000000005e3cc                gc_disable_obj
                0x000000000005e3d4                gc_collect_obj
                0x000000000005e3dc                mp_sys_print_exception_obj
                0x000000000005e3e8                mp_sys_stderr_obj
                0x000000000005e3f0                mp_sys_stdin_obj
                0x000000000005e3f8                mp_sys_exit_obj
                0x000000000005e404                mp_maxsize_obj
                0x000000000005e414                platform_obj.lto_priv.0
                0x000000000005e424                mp_sys_implementation_obj.lto_priv.0
                0x000000000005e43c                mp_sys_version_info_obj.lto_priv.0
                0x000000000005e450                version_obj.lto_priv.0
                0x000000000005e460                mp_math_degrees_obj.lto_priv.0
                0x000000000005e468                mp_math_radians_obj.lto_priv.0
                0x000000000005e470                mp_math_trunc_obj.lto_priv.0
                0x000000000005e478                mp_math_isnan_obj.lto_priv.0
                0x000000000005e480                mp_math_isinf_obj.lto_priv.0
                0x000000000005e488                mp_math_isfinite_obj.lto_priv.0
                0x000000000005e490                mp_math_modf_obj.lto_priv.0
                0x000000000005e498                mp_math_ldexp_obj.lto_priv.0
                0x000000000005e4a0                mp_math_frexp_obj.lto_priv.0
                0x000000000005e4a8                mp_math_fmod_obj.lto_priv.0
                0x000000000005e4b0                mp_math_floor_obj.lto_priv.0
                0x000000000005e4b8                mp_math_fabs_obj.lto_priv.0
                0x000000000005e4c0                mp_math_copysign_obj.lto_priv.0
                0x000000000005e4c8                mp_math_ceil_obj.lto_priv.0
                0x000000000005e4d0                mp_math_atan2_obj.lto_priv.0
                0x000000000005e4d8                mp_math_atan_obj.lto_priv.0
                0x000000000005e4e0                mp_math_asin_obj.lto_priv.0
                0x000000000005e4e8                mp_math_acos_obj.lto_priv.0
                0x000000000005e4f0                mp_math_tan_obj.lto_priv.0
                0x000000000005e4f8                mp_math_sin_obj.lto_priv.0
                0x000000000005e500                mp_math_cos_obj.lto_priv.0
                0x000000000005e508                mp_math_log_obj.lto_priv.0
                0x000000000005e514                mp_math_exp_obj.lto_priv.0
                0x000000000005e51c                mp_math_pow_obj.lto_priv.0
                0x000000000005e524                mp_math_sqrt_obj.lto_priv.0
                0x000000000005e52c                mp_const_float_pi_obj
                0x000000000005e534                mp_const_float_e_obj
                0x000000000005e53c                struct_unpack_from_obj
                0x000000000005e548                struct_pack_into_obj
                0x000000000005e554                struct_pack_obj
                0x000000000005e560                struct_calcsize_obj
                0x000000000005e568                mp_namedtuple_obj
                0x000000000005e570                mp_type_bytesio
                0x000000000005e5ac                mp_micropython_schedule_obj.lto_priv.0
                0x000000000005e5b4                mp_micropython_kbd_intr_obj.lto_priv.0
                0x000000000005e5bc                mp_micropython_heap_unlock_obj.lto_priv.0
                0x000000000005e5c4                mp_micropython_heap_lock_obj.lto_priv.0
                0x000000000005e5cc                mp_alloc_emergency_exception_buf_obj.lto_priv.0
                0x000000000005e5d4                mp_micropython_stack_use_obj.lto_priv.0
                0x000000000005e5dc                mp_micropython_qstr_info_obj.lto_priv.0
                0x000000000005e5e8                mp_micropython_mem_info_obj.lto_priv.0
                0x000000000005e5f4                mp_micropython_opt_level_obj.lto_priv.0
                0x000000000005e600                mp_module_array_globals_table.lto_priv.0
                0x000000000005e610                bma42x_module_globals_table.lto_priv.0
                0x000000000005e720                mp_module_random_globals_table.lto_priv.0
                0x000000000005e758                mp_module_ubluepy_globals_table.lto_priv.0
                0x000000000005e7b0                ble_module_globals_table.lto_priv.0
                0x000000000005e7d8                os_module_globals_table.lto_priv.0
                0x000000000005e858                time_module_globals_table.lto_priv.0
                0x000000000005e888                machine_module_globals_table.lto_priv.0
                0x000000000005e988                board_module_globals_table.lto_priv.0
                0x000000000005e998                mp_module_ujson_globals_table.lto_priv.0
                0x000000000005e9c0                mp_module_gc_globals_table.lto_priv.0
                0x000000000005ea00                mp_module_sys_globals_table.lto_priv.0
                0x000000000005ea78                mp_module_math_globals_table.lto_priv.0
                0x000000000005eb58                mp_module_struct_globals_table.lto_priv.0
                0x000000000005eb88                mp_module_collections_globals_table.lto_priv.0
                0x000000000005eb98                mp_module_io_globals_table.lto_priv.0
                0x000000000005ebc8                mp_module_micropython_globals_table.lto_priv.0
                0x000000000005ec20                mp_module_array_globals.lto_priv.0
                0x000000000005ec30                mp_module_bma42x_globals.lto_priv.0
                0x000000000005ec40                mp_module_random_globals.lto_priv.0
                0x000000000005ec50                mp_module_ubluepy_globals.lto_priv.0
                0x000000000005ec60                ble_module_globals.lto_priv.0
                0x000000000005ec70                os_module_globals.lto_priv.0
                0x000000000005ec80                time_module_globals.lto_priv.0
                0x000000000005ec90                machine_module_globals.lto_priv.0
                0x000000000005eca0                board_module_globals.lto_priv.0
                0x000000000005ecb0                mp_module_ujson_globals.lto_priv.0
                0x000000000005ecc0                mp_module_gc_globals.lto_priv.0
                0x000000000005ecd0                mp_module_sys_globals.lto_priv.0
                0x000000000005ece0                mp_module_math_globals.lto_priv.0
                0x000000000005ecf0                mp_module_struct_globals.lto_priv.0
                0x000000000005ed00                mp_module_collections_globals.lto_priv.0
                0x000000000005ed10                mp_module_io_globals.lto_priv.0
                0x000000000005ed20                mp_module_micropython_globals.lto_priv.0
                0x000000000005ed30                mp_module_uarray
                0x000000000005ed38                mp_module_bma42x
                0x000000000005ed40                random_module
                0x000000000005ed48                mp_module_ubluepy
                0x000000000005ed50                ble_module
                0x000000000005ed58                mp_module_uos
                0x000000000005ed60                mp_module_utime
                0x000000000005ed68                machine_module
                0x000000000005ed70                board_module
                0x000000000005ed78                mp_module_ujson
                0x000000000005ed80                mp_module_gc
                0x000000000005ed88                mp_module_sys
                0x000000000005ed90                mp_module_math
                0x000000000005ed98                mp_module_ustruct
                0x000000000005eda0                mp_module_collections
                0x000000000005eda8                mp_module_io
                0x000000000005edb0                mp_module_micropython
                0x000000000005edb8                object___new___fun_obj.lto_priv.0
                0x000000000005edc0                property_deleter_obj.lto_priv.0
                0x000000000005edc8                property_setter_obj.lto_priv.0
                0x000000000005edd0                property_getter_obj.lto_priv.0
                0x000000000005edd8                object___new___obj.lto_priv.0
                0x000000000005ede0                object___init___obj.lto_priv.0
                0x000000000005ede8                property_locals_dict_table.lto_priv.0
                0x000000000005ee00                object_locals_dict_table.lto_priv.0
                0x000000000005ee10                frozenset_locals_dict_table.lto_priv.0
                0x000000000005ee58                mp_type_singleton
                0x000000000005ee94                property_locals_dict.lto_priv.0
                0x000000000005eea4                object_locals_dict.lto_priv.0
                0x000000000005eeb4                frozenset_locals_dict.lto_priv.0
                0x000000000005eec4                mp_vfs_open_obj
                0x000000000005eed0                mp_type_ViperTypeError
                0x000000000005ef0c                mp_type_SyntaxError
                0x000000000005ef48                mp_type_StopAsyncIteration
                0x000000000005ef84                mp_type_OverflowError
                0x000000000005efc0                mp_type_MemoryError
                0x000000000005effc                mp_type_KeyError
                0x000000000005f038                mp_type_IndentationError
                0x000000000005f074                mp_type_AssertionError
                0x000000000005f0b0                mp_builtin_sum_obj
                0x000000000005f0bc                mp_builtin_sorted_obj
                0x000000000005f0c8                mp_builtin_round_obj
                0x000000000005f0d4                mp_builtin_repr_obj
                0x000000000005f0dc                mp_builtin_print_obj
                0x000000000005f0e8                mp_builtin_pow_obj
                0x000000000005f0f4                mp_builtin_ord_obj
                0x000000000005f0fc                mp_builtin_oct_obj
                0x000000000005f104                mp_builtin_next_obj
                0x000000000005f10c                mp_builtin_min_obj
                0x000000000005f118                mp_builtin_max_obj
                0x000000000005f124                mp_builtin_locals_obj
                0x000000000005f12c                mp_builtin_len_obj
                0x000000000005f134                mp_builtin_iter_obj
                0x000000000005f13c                mp_builtin_issubclass_obj
                0x000000000005f144                mp_builtin_isinstance_obj
                0x000000000005f14c                mp_builtin_input_obj
                0x000000000005f158                mp_builtin_id_obj
                0x000000000005f160                mp_builtin_hex_obj
                0x000000000005f168                mp_builtin_help_obj
                0x000000000005f174                mp_builtin_hash_obj
                0x000000000005f17c                mp_builtin_hasattr_obj
                0x000000000005f184                mp_builtin_globals_obj
                0x000000000005f18c                mp_builtin_setattr_obj
                0x000000000005f194                mp_builtin_getattr_obj
                0x000000000005f1a0                mp_builtin_exec_obj
                0x000000000005f1ac                mp_builtin_eval_obj
                0x000000000005f1b8                mp_builtin_divmod_obj
                0x000000000005f1c0                mp_builtin_dir_obj
                0x000000000005f1cc                mp_builtin_delattr_obj
                0x000000000005f1d4                mp_builtin_chr_obj
                0x000000000005f1dc                mp_builtin_compile_obj
                0x000000000005f1e8                mp_builtin_callable_obj
                0x000000000005f1f0                mp_builtin_bin_obj
                0x000000000005f1f8                mp_builtin_any_obj
                0x000000000005f200                mp_builtin_all_obj
                0x000000000005f208                mp_builtin_abs_obj
                0x000000000005f210                mp_const_ellipsis_obj
                0x000000000005f218                mp_type_zip
                0x000000000005f254                mp_type_reversed
                0x000000000005f290                mp_type_range
                0x000000000005f2cc                mp_type_memoryview
                0x000000000005f308                mp_type_map
                0x000000000005f344                mp_type_frozenset
                0x000000000005f380                mp_type_filter
                0x000000000005f3bc                mp_type_enumerate
                0x000000000005f3f8                mp_type_complex
                0x000000000005f434                mp_builtin___repl_print___obj
                0x000000000005f43c                mp_builtin___import___obj
                0x000000000005f448                mp_module_builtins_globals_table.lto_priv.0
                0x000000000005f750                mp_module_builtins_globals
                0x000000000005f760                mp_type_ArithmeticError
                0x000000000005f79c                stdio_obj___exit___obj.lto_priv.0
                0x000000000005f7a8                stdio_locals_dict_table.lto_priv.0
                0x000000000005f7f0                stdio_locals_dict.lto_priv.0
                0x000000000005f800                stdio_obj_stream_p.lto_priv.0
                0x000000000005f810                stdio_obj_type.lto_priv.0
                0x000000000005f84c                mp_op_contains_obj
                0x000000000005f854                set_update_obj.lto_priv.0
                0x000000000005f860                set_union_obj.lto_priv.0
                0x000000000005f868                set_symmetric_difference_update_obj.lto_priv.0
                0x000000000005f870                set_symmetric_difference_obj.lto_priv.0
                0x000000000005f878                set_remove_obj.lto_priv.0
                0x000000000005f880                set_pop_obj.lto_priv.0
                0x000000000005f888                set_issuperset_obj.lto_priv.0
                0x000000000005f890                set_issubset_obj.lto_priv.0
                0x000000000005f898                set_isdisjoint_obj.lto_priv.0
                0x000000000005f8a0                set_intersect_update_obj.lto_priv.0
                0x000000000005f8a8                set_intersect_obj.lto_priv.0
                0x000000000005f8b0                set_diff_update_obj.lto_priv.0
                0x000000000005f8bc                set_diff_obj.lto_priv.0
                0x000000000005f8c8                set_discard_obj.lto_priv.0
                0x000000000005f8d0                set_copy_obj.lto_priv.0
                0x000000000005f8d8                set_clear_obj.lto_priv.0
                0x000000000005f8e0                set_add_obj.lto_priv.0
                0x000000000005f8e8                set_locals_dict_table.lto_priv.0
                0x000000000005f978                set_locals_dict.lto_priv.0
                0x000000000005f988                mp_builtin_module_map
 .rodata        0x000000000005f994      0x1e4 /tmp/firmware.elf.fkNs2M.ltrans3.ltrans.o
                0x000000000005fac4                mp_type_gen_instance
                0x000000000005fb24                gen_instance_pend_throw_obj.lto_priv.0
                0x000000000005fb2c                gen_instance_throw_obj.lto_priv.0
                0x000000000005fb38                gen_instance_send_obj.lto_priv.0
                0x000000000005fb40                gen_instance_close_obj.lto_priv.0
                0x000000000005fb48                gen_instance_locals_dict_table.lto_priv.0
                0x000000000005fb68                gen_instance_locals_dict.lto_priv.0
 .rodata        0x000000000005fb78      0x118 /tmp/firmware.elf.fkNs2M.ltrans4.ltrans.o
 .rodata        0x000000000005fc90      0x85c /tmp/firmware.elf.fkNs2M.ltrans5.ltrans.o
 *(.rodata*)
 .rodata.str1.1
                0x00000000000604ec      0x54d /tmp/firmware.elf.fkNs2M.ltrans0.ltrans.o
                                        0x597 (size before relaxing)
 .rodata.str1.1
                0x0000000000060a39     0x5898 /tmp/firmware.elf.fkNs2M.ltrans1.ltrans.o
                                       0x58ef (size before relaxing)
 .rodata.str1.1
                0x00000000000662d1      0x4b1 /tmp/firmware.elf.fkNs2M.ltrans2.ltrans.o
                                        0x513 (size before relaxing)
 *fill*         0x0000000000066782        0x2 
 .rodata.str1.4
                0x0000000000066784       0xeb /tmp/firmware.elf.fkNs2M.ltrans2.ltrans.o
 .rodata.str1.1
                0x000000000006686f      0x701 /tmp/firmware.elf.fkNs2M.ltrans3.ltrans.o
                                        0x7ff (size before relaxing)
 .rodata.str1.1
                0x0000000000066f70      0x6ac /tmp/firmware.elf.fkNs2M.ltrans4.ltrans.o
                                        0x762 (size before relaxing)
 .rodata.str1.1
                0x000000000006761c      0x43a /tmp/firmware.elf.fkNs2M.ltrans5.ltrans.o
                                        0x4ae (size before relaxing)
 *fill*         0x0000000000067a56        0x2 
 .rodata.str1.4
                0x0000000000067a58       0xb3 /tmp/firmware.elf.fkNs2M.ltrans5.ltrans.o
                0x0000000000067b0c                . = ALIGN (0x4)
 *fill*         0x0000000000067b0b        0x1 
                0x0000000000067b0c                _etext = .
                0x0000000000067b0c                _sidata = LOADADDR (.data)

.glue_7         0x0000000000067b0c        0x0
 .glue_7        0x0000000000067b0c        0x0 linker stubs

.glue_7t        0x0000000000067b0c        0x0
 .glue_7t       0x0000000000067b0c        0x0 linker stubs

.vfp11_veneer   0x0000000000067b0c        0x0
 .vfp11_veneer  0x0000000000067b0c        0x0 linker stubs

.v4_bx          0x0000000000067b0c        0x0
 .v4_bx         0x0000000000067b0c        0x0 linker stubs

.iplt           0x0000000000067b0c        0x0
 .iplt          0x0000000000067b0c        0x0 build-pinetime-s132/py/nlrx86.o

.rel.dyn        0x0000000000067b0c        0x0
 .rel.iplt      0x0000000000067b0c        0x0 build-pinetime-s132/py/nlrx86.o

.data           0x00000000200039e0       0x98 load address 0x0000000000067b0c
                0x00000000200039e0                . = ALIGN (0x4)
                0x00000000200039e0                _sdata = .
                0x00000000200039e0                _ram_start = .
 *(.data)
 .data          0x00000000200039e0        0x4 /tmp/firmware.elf.fkNs2M.ltrans0.ltrans.o
                0x00000000200039e0                mp_interrupt_char
 .data          0x00000000200039e4       0x91 /tmp/firmware.elf.fkNs2M.ltrans1.ltrans.o
                0x0000000020003a28                SystemCoreClock
 .data          0x0000000020003a75        0x0 /tmp/firmware.elf.fkNs2M.ltrans2.ltrans.o
 .data          0x0000000020003a75        0x0 /tmp/firmware.elf.fkNs2M.ltrans3.ltrans.o
 .data          0x0000000020003a75        0x0 /tmp/firmware.elf.fkNs2M.ltrans4.ltrans.o
 .data          0x0000000020003a75        0x0 /tmp/firmware.elf.fkNs2M.ltrans5.ltrans.o
 .data          0x0000000020003a75        0x0 build-pinetime-s132/py/nlrx86.o
 .data          0x0000000020003a75        0x0 build-pinetime-s132/py/nlrx64.o
 .data          0x0000000020003a75        0x0 build-pinetime-s132/py/nlrthumb.o
 .data          0x0000000020003a75        0x0 build-pinetime-s132/py/nlrpowerpc.o
 .data          0x0000000020003a75        0x0 build-pinetime-s132/py/nlrxtensa.o
 .data          0x0000000020003a75        0x0 build-pinetime-s132/py/nlrsetjmp.o
 .data          0x0000000020003a75        0x0 /opt/gcc-arm-none-eabi-9-2019-q4-major/bin/../lib/gcc/arm-none-eabi/9.2.1/thumb/v7e-m+fp/hard//libgcc.a(_arm_addsubdf3.o)
 .data          0x0000000020003a75        0x0 /opt/gcc-arm-none-eabi-9-2019-q4-major/bin/../lib/gcc/arm-none-eabi/9.2.1/thumb/v7e-m+fp/hard//libgcc.a(_arm_truncdfsf2.o)
 .data          0x0000000020003a75        0x0 /opt/gcc-arm-none-eabi-9-2019-q4-major/bin/../lib/gcc/arm-none-eabi/9.2.1/thumb/v7e-m+fp/hard//libgcc.a(_popcountsi2.o)
 *(.data*)
                0x0000000020003a78                . = ALIGN (0x4)
 *fill*         0x0000000020003a75        0x3 
                0x0000000020003a78                _edata = .

.igot.plt       0x0000000020003a78        0x0 load address 0x0000000000067ba4
 .igot.plt      0x0000000020003a78        0x0 build-pinetime-s132/py/nlrx86.o

.bss            0x0000000020003a78      0x710 load address 0x0000000000067ba4
                0x0000000020003a78                . = ALIGN (0x4)
                0x0000000020003a78                _sbss = .
 *(.bss)
 .bss           0x0000000020003a78      0x314 /tmp/firmware.elf.fkNs2M.ltrans0.ltrans.o
                0x0000000020003aa4                m_cb.lto_priv.7
                0x0000000020003af1                m_cccd_enabled.lto_priv.0
                0x0000000020003af2                m_connected.lto_priv.0
                0x0000000020003b38                reset_cause.lto_priv.0
                0x0000000020003c84                m_cb.lto_priv.1
                0x0000000020003cb4                mp_gattc_disc_service_observer.lto_priv.0
                0x0000000020003cb8                disc_add_service_handler.lto_priv.0
                0x0000000020003cbc                m_primary_service_found.lto_priv.0
                0x0000000020003cdc                mp_adv_observer.lto_priv.0
                0x0000000020003ce0                adv_event_handler.lto_priv.0
                0x0000000020003ce4                m_write_done.lto_priv.0
                0x0000000020003ce8                mp_gattc_char_data_observer.lto_priv.0
                0x0000000020003cec                gattc_char_data_handle.lto_priv.0
                0x0000000020003cf0                mp_gap_observer.lto_priv.0
                0x0000000020003cf4                gap_event_handler.lto_priv.0
                0x0000000020003cfc                mp_gattc_disc_char_observer.lto_priv.0
                0x0000000020003d00                disc_add_char_handler.lto_priv.0
                0x0000000020003d04                m_characteristic_found.lto_priv.0
                0x0000000020003d08                mp_gatts_observer.lto_priv.0
                0x0000000020003d0c                gatts_event_handler.lto_priv.0
 .bss           0x0000000020003d8c      0x157 /tmp/firmware.elf.fkNs2M.ltrans1.ltrans.o
 .bss           0x0000000020003ee3        0x0 /tmp/firmware.elf.fkNs2M.ltrans2.ltrans.o
 .bss           0x0000000020003ee3        0x0 /tmp/firmware.elf.fkNs2M.ltrans3.ltrans.o
 .bss           0x0000000020003ee3        0x0 /tmp/firmware.elf.fkNs2M.ltrans4.ltrans.o
 .bss           0x0000000020003ee3        0x0 /tmp/firmware.elf.fkNs2M.ltrans5.ltrans.o
 .bss           0x0000000020003ee3        0x0 build-pinetime-s132/py/nlrx86.o
 .bss           0x0000000020003ee3        0x0 build-pinetime-s132/py/nlrx64.o
 .bss           0x0000000020003ee3        0x0 build-pinetime-s132/py/nlrthumb.o
 .bss           0x0000000020003ee3        0x0 build-pinetime-s132/py/nlrpowerpc.o
 .bss           0x0000000020003ee3        0x0 build-pinetime-s132/py/nlrxtensa.o
 .bss           0x0000000020003ee3        0x0 build-pinetime-s132/py/nlrsetjmp.o
 .bss           0x0000000020003ee3        0x0 /opt/gcc-arm-none-eabi-9-2019-q4-major/bin/../lib/gcc/arm-none-eabi/9.2.1/thumb/v7e-m+fp/hard//libgcc.a(_arm_addsubdf3.o)
 .bss           0x0000000020003ee3        0x0 /opt/gcc-arm-none-eabi-9-2019-q4-major/bin/../lib/gcc/arm-none-eabi/9.2.1/thumb/v7e-m+fp/hard//libgcc.a(_arm_truncdfsf2.o)
 .bss           0x0000000020003ee3        0x0 /opt/gcc-arm-none-eabi-9-2019-q4-major/bin/../lib/gcc/arm-none-eabi/9.2.1/thumb/v7e-m+fp/hard//libgcc.a(_popcountsi2.o)
 *(.bss*)
 *(COMMON)
 *fill*         0x0000000020003ee3        0x1 
 COMMON         0x0000000020003ee4      0x2a4 /tmp/firmware.elf.fkNs2M.ltrans0.ltrans.o
                0x0000000020003ee4                mp_state_ctx
                0x0000000020004188                . = ALIGN (0x4)
                0x0000000020004188                _ebss = .

.ARM.attributes
                0x0000000000000000       0x34
 *(.ARM.attributes)
 .ARM.attributes
                0x0000000000000000       0x32 /tmp/firmware.elf.fkNs2M.ltrans0.ltrans.o
 .ARM.attributes
                0x0000000000000032       0x32 /tmp/firmware.elf.fkNs2M.ltrans1.ltrans.o
 .ARM.attributes
                0x0000000000000064       0x32 /tmp/firmware.elf.fkNs2M.ltrans2.ltrans.o
 .ARM.attributes
                0x0000000000000096       0x32 /tmp/firmware.elf.fkNs2M.ltrans3.ltrans.o
 .ARM.attributes
                0x00000000000000c8       0x32 /tmp/firmware.elf.fkNs2M.ltrans4.ltrans.o
 .ARM.attributes
                0x00000000000000fa       0x32 /tmp/firmware.elf.fkNs2M.ltrans5.ltrans.o
 .ARM.attributes
                0x000000000000012c       0x39 build-pinetime-s132/py/nlrx86.o
 .ARM.attributes
                0x0000000000000165       0x39 build-pinetime-s132/py/nlrx64.o
 .ARM.attributes
                0x000000000000019e       0x34 build-pinetime-s132/py/nlrthumb.o
 .ARM.attributes
                0x00000000000001d2       0x39 build-pinetime-s132/py/nlrpowerpc.o
 .ARM.attributes
                0x000000000000020b       0x39 build-pinetime-s132/py/nlrxtensa.o
 .ARM.attributes
                0x0000000000000244       0x39 build-pinetime-s132/py/nlrsetjmp.o
 .ARM.attributes
                0x000000000000027d       0x1e /opt/gcc-arm-none-eabi-9-2019-q4-major/bin/../lib/gcc/arm-none-eabi/9.2.1/thumb/v7e-m+fp/hard//libgcc.a(_arm_addsubdf3.o)
 .ARM.attributes
                0x000000000000029b       0x1e /opt/gcc-arm-none-eabi-9-2019-q4-major/bin/../lib/gcc/arm-none-eabi/9.2.1/thumb/v7e-m+fp/hard//libgcc.a(_arm_truncdfsf2.o)
 .ARM.attributes
                0x00000000000002b9       0x34 /opt/gcc-arm-none-eabi-9-2019-q4-major/bin/../lib/gcc/arm-none-eabi/9.2.1/thumb/v7e-m+fp/hard//libgcc.a(_popcountsi2.o)
                0x0000000020010000                _ram_end = (ORIGIN (RAM) + LENGTH (RAM))
                0x0000000020010000                _estack = (ORIGIN (RAM) + LENGTH (RAM))
OUTPUT(build-pinetime-s132/firmware.elf elf32-littlearm)

.debug_info     0x0000000000000000   0x2c67fe
 .debug_info    0x0000000000000000    0x139b1 /tmp/firmware.elf.fkNs2M.ltrans0.ltrans.o
 .debug_info    0x00000000000139b1    0x10c49 /tmp/firmware.elf.fkNs2M.ltrans1.ltrans.o
 .debug_info    0x00000000000245fa     0xe2c6 /tmp/firmware.elf.fkNs2M.ltrans2.ltrans.o
 .debug_info    0x00000000000328c0     0xe172 /tmp/firmware.elf.fkNs2M.ltrans3.ltrans.o
 .debug_info    0x0000000000040a32    0x12de7 /tmp/firmware.elf.fkNs2M.ltrans4.ltrans.o
 .debug_info    0x0000000000053819     0xb854 /tmp/firmware.elf.fkNs2M.ltrans5.ltrans.o
 .debug_info    0x000000000005f06d     0x1c3c /tmp/cc93ME0M.debug.temp.o
                0x000000000005f06d                mpstate.c.80d63b0e
 .debug_info    0x0000000000060ca9     0x1c78 /tmp/cce4P40N.debug.temp.o
                0x0000000000060ca9                nlr.c.58f0cfd6
 .debug_info    0x0000000000062921     0x1d63 /tmp/ccUShPpQ.debug.temp.o
                0x0000000000062921                malloc.c.5ca29685
 .debug_info    0x0000000000064684     0x376c /tmp/cceFSu6P.debug.temp.o
                0x0000000000064684                gc.c.faf1ab55
 .debug_info    0x0000000000067df0     0x1c5c /tmp/ccdzT4VM.debug.temp.o
                0x0000000000067df0                pystack.c.30be422d
 .debug_info    0x0000000000069a4c     0x34e2 /tmp/ccNViw3Q.debug.temp.o
                0x0000000000069a4c                qstr.c.ab79a49b
 .debug_info    0x000000000006cf2e     0x213b /tmp/ccaeSOVO.debug.temp.o
                0x000000000006cf2e                vstr.c.746fc717
 .debug_info    0x000000000006f069     0x2a09 /tmp/ccKvZ7vP.debug.temp.o
                0x000000000006f069                mpprint.c.2b364ea1
 .debug_info    0x0000000000071a72      0xb08 /tmp/ccICjyfQ.debug.temp.o
                0x0000000000071a72                unicode.c.b7271883
 .debug_info    0x000000000007257a     0x1b64 /tmp/ccn2vtnQ.debug.temp.o
                0x000000000007257a                mpz.c.ae95d431
 .debug_info    0x00000000000740de     0x1daf /tmp/ccjVtRPQ.debug.temp.o
                0x00000000000740de                reader.c.996b4dc2
 .debug_info    0x0000000000075e8d     0x26c9 /tmp/ccDq2BXN.debug.temp.o
                0x0000000000075e8d                lexer.c.8b2dd1c2
 .debug_info    0x0000000000078556     0x584c /tmp/cciUpSSM.debug.temp.o
                0x0000000000078556                parse.c.24f7e965
 .debug_info    0x000000000007dda2     0x3668 /tmp/ccZn2DtO.debug.temp.o
                0x000000000007dda2                scope.c.dd4b3dc5
 .debug_info    0x000000000008140a     0x67dc /tmp/ccmIpRtR.debug.temp.o
                0x000000000008140a                compile.c.421ccfd2
 .debug_info    0x0000000000087be6     0x28d7 /tmp/ccP2KyrR.debug.temp.o
                0x0000000000087be6                emitcommon.c.11cc40a6
 .debug_info    0x000000000008a4bd     0x4e4e /tmp/ccv6jvYM.debug.temp.o
                0x000000000008a4bd                emitbc.c.386c18c6
 .debug_info    0x000000000008f30b     0x1844 /tmp/cceQx5jN.debug.temp.o
                0x000000000008f30b                asmbase.c.d207a247
 .debug_info    0x0000000000090b4f      0x97f /tmp/cc28lXzN.debug.temp.o
                0x0000000000090b4f                asmx64.c.40e579a9
 .debug_info    0x00000000000914ce      0x97f /tmp/ccZ3gIEQ.debug.temp.o
                0x00000000000914ce                emitnx64.c.1f6a33a3
 .debug_info    0x0000000000091e4d      0x97f /tmp/ccjCKAPP.debug.temp.o
                0x0000000000091e4d                asmx86.c.f942e87e
 .debug_info    0x00000000000927cc     0x2909 /tmp/cc4FifzO.debug.temp.o
                0x00000000000927cc                emitnx86.c.25a180c8
 .debug_info    0x00000000000950d5     0x2b36 /tmp/ccnVoEHP.debug.temp.o
                0x00000000000950d5                asmthumb.c.a166f452
 .debug_info    0x0000000000097c0b     0x739b /tmp/ccx7QyUQ.debug.temp.o
                0x0000000000097c0b                emitnthumb.c.b0d24286
 .debug_info    0x000000000009efa6     0x282a /tmp/ccpng4nR.debug.temp.o
                0x000000000009efa6                emitinlinethumb.c.b0fa51a3
 .debug_info    0x00000000000a17d0      0x97f /tmp/cc3Z3kZO.debug.temp.o
                0x00000000000a17d0                asmarm.c.d026b7eb
 .debug_info    0x00000000000a214f      0x97f /tmp/ccc6wqHO.debug.temp.o
                0x00000000000a214f                emitnarm.c.b8da351c
 .debug_info    0x00000000000a2ace      0x97f /tmp/ccOHxoqO.debug.temp.o
                0x00000000000a2ace                asmxtensa.c.eb98f47f
 .debug_info    0x00000000000a344d      0x97f /tmp/cc1LyLhP.debug.temp.o
                0x00000000000a344d                emitnxtensa.c.565e6692
 .debug_info    0x00000000000a3dcc     0x282a /tmp/ccDU7MoN.debug.temp.o
                0x00000000000a3dcc                emitinlinextensa.c.02765bd8
 .debug_info    0x00000000000a65f6      0x97f /tmp/cc0B9mKN.debug.temp.o
                0x00000000000a65f6                emitnxtensawin.c.7ad44baa
 .debug_info    0x00000000000a6f75      0xbd1 /tmp/ccuSjZDO.debug.temp.o
                0x00000000000a6f75                formatfloat.c.018e0b0a
 .debug_info    0x00000000000a7b46      0xa30 /tmp/cckn69GQ.debug.temp.o
                0x00000000000a7b46                parsenumbase.c.1f6a926d
 .debug_info    0x00000000000a8576     0x383b /tmp/ccxjmsBQ.debug.temp.o
                0x00000000000a8576                parsenum.c.302dad6f
 .debug_info    0x00000000000abdb1     0x1e68 /tmp/ccDNtTuO.debug.temp.o
                0x00000000000abdb1                emitglue.c.d76ebfb5
 .debug_info    0x00000000000adc19     0x3418 /tmp/ccv54H7M.debug.temp.o
                0x00000000000adc19                persistentcode.c.87cff798
 .debug_info    0x00000000000b1031     0x4e2f /tmp/ccmUAT5N.debug.temp.o
                0x00000000000b1031                runtime.c.fcf9c2d1
 .debug_info    0x00000000000b5e60     0x1cea /tmp/ccy8zpVP.debug.temp.o
                0x00000000000b5e60                runtime_utils.c.b71a7551
 .debug_info    0x00000000000b7b4a     0x1d4f /tmp/ccHUzH7M.debug.temp.o
                0x00000000000b7b4a                scheduler.c.b6105eb3
 .debug_info    0x00000000000b9899     0x410c /tmp/ccUada5O.debug.temp.o
                0x00000000000b9899                nativeglue.c.ae3fdc52
 .debug_info    0x00000000000bd9a5      0x192 /tmp/ccPnOOEQ.debug.temp.o
                0x00000000000bd9a5                ringbuf.c.32888bd6
 .debug_info    0x00000000000bdb37     0x1ccd /tmp/ccw9RqrO.debug.temp.o
                0x00000000000bdb37                stackctrl.c.3f170dc7
 .debug_info    0x00000000000bf804     0x1eed /tmp/ccipaprO.debug.temp.o
                0x00000000000bf804                argcheck.c.810f0f34
 .debug_info    0x00000000000c16f1     0x282a /tmp/ccaKT8oO.debug.temp.o
                0x00000000000c16f1                warning.c.6a9240cf
 .debug_info    0x00000000000c3f1b     0x1c5c /tmp/ccT4y8hN.debug.temp.o
                0x00000000000c3f1b                profile.c.5596bcc8
 .debug_info    0x00000000000c5b77     0x2063 /tmp/ccqme5fQ.debug.temp.o
                0x00000000000c5b77                map.c.a82b803b
 .debug_info    0x00000000000c7bda     0x3baa /tmp/ccYYwCaO.debug.temp.o
                0x00000000000c7bda                obj.c.5de9288f
 .debug_info    0x00000000000cb784     0x3ccb /tmp/ccQwFyWM.debug.temp.o
                0x00000000000cb784                objarray.c.c054ea5f
 .debug_info    0x00000000000cf44f     0x2d7b /tmp/ccdyEzJQ.debug.temp.o
                0x00000000000cf44f                objattrtuple.c.1c6b2d88
 .debug_info    0x00000000000d21ca     0x3390 /tmp/ccYcJ1uO.debug.temp.o
                0x00000000000d21ca                objbool.c.beda0294
 .debug_info    0x00000000000d555a     0x3360 /tmp/ccwj3EXM.debug.temp.o
                0x00000000000d555a                objboundmeth.c.dfbb78b6
 .debug_info    0x00000000000d88ba     0x2ca4 /tmp/ccJaTFqR.debug.temp.o
                0x00000000000d88ba                objcell.c.23081afb
 .debug_info    0x00000000000db55e     0x3307 /tmp/ccjWW6jP.debug.temp.o
                0x00000000000db55e                objclosure.c.11932a96
 .debug_info    0x00000000000de865     0x3611 /tmp/ccaW2ebN.debug.temp.o
                0x00000000000de865                objcomplex.c.c2c4dbd8
 .debug_info    0x00000000000e1e76      0x9cd /tmp/ccAVqDDN.debug.temp.o
                0x00000000000e1e76                objdeque.c.5d227199
 .debug_info    0x00000000000e2843     0x4480 /tmp/ccwPhI8O.debug.temp.o
                0x00000000000e2843                objdict.c.0702a921
 .debug_info    0x00000000000e6cc3     0x33f2 /tmp/cc1J15UO.debug.temp.o
                0x00000000000e6cc3                objenumerate.c.68e4ffde
 .debug_info    0x00000000000ea0b5     0x3afd /tmp/cc1RzNSO.debug.temp.o
                0x00000000000ea0b5                objexcept.c.77ae9d0a
 .debug_info    0x00000000000edbb2     0x3311 /tmp/cc0hh2tR.debug.temp.o
                0x00000000000edbb2                objfilter.c.6afc907f
 .debug_info    0x00000000000f0ec3     0x3528 /tmp/cc4iH1VN.debug.temp.o
                0x00000000000f0ec3                objfloat.c.d7ec8dba
 .debug_info    0x00000000000f43eb     0x399d /tmp/ccKPVk0P.debug.temp.o
                0x00000000000f43eb                objfun.c.8f7d8706
 .debug_info    0x00000000000f7d88     0x3a8e /tmp/cce9YhTM.debug.temp.o
                0x00000000000f7d88                objgenerator.c.2d98f038
 .debug_info    0x00000000000fb816     0x32a9 /tmp/cc3e7NcQ.debug.temp.o
                0x00000000000fb816                objgetitemiter.c.f67f4a60
 .debug_info    0x00000000000feabf     0x3b4e /tmp/ccCXvMcQ.debug.temp.o
                0x00000000000feabf                objint.c.efc9298b
 .debug_info    0x000000000010260d     0x1d1e /tmp/cckMcd6N.debug.temp.o
                0x000000000010260d                objint_longlong.c.3704d463
 .debug_info    0x000000000010432b     0x22a6 /tmp/ccIp6pbN.debug.temp.o
                0x000000000010432b                objint_mpz.c.25cd8407
 .debug_info    0x00000000001065d1     0x3ded /tmp/ccidzDqO.debug.temp.o
                0x00000000001065d1                objlist.c.549eeb93
 .debug_info    0x000000000010a3be     0x3336 /tmp/cc6efsOO.debug.temp.o
                0x000000000010a3be                objmap.c.38cb921d
 .debug_info    0x000000000010d6f4     0x3973 /tmp/ccXQU4lO.debug.temp.o
                0x000000000010d6f4                objmodule.c.f6e7a04f
 .debug_info    0x0000000000111067     0x33fd /tmp/ccXif2FN.debug.temp.o
                0x0000000000111067                objobject.c.7e6a95f4
 .debug_info    0x0000000000114464     0x3242 /tmp/ccS27wDP.debug.temp.o
                0x0000000000114464                objpolyiter.c.708bfe15
 .debug_info    0x00000000001176a6     0x34f9 /tmp/ccNpM16P.debug.temp.o
                0x00000000001176a6                objproperty.c.709e6fe7
 .debug_info    0x000000000011ab9f     0x2c34 /tmp/ccTAPjjN.debug.temp.o
                0x000000000011ab9f                objnone.c.aeb7f0a3
 .debug_info    0x000000000011d7d3     0x21c6 /tmp/cc1vPN6M.debug.temp.o
                0x000000000011d7d3                objnamedtuple.c.833ad53a
 .debug_info    0x000000000011f999     0x35c8 /tmp/ccOCKUBO.debug.temp.o
                0x000000000011f999                objrange.c.7e738e5b
 .debug_info    0x0000000000122f61     0x3313 /tmp/ccVOOObQ.debug.temp.o
                0x0000000000122f61                objreversed.c.30ab6fe3
 .debug_info    0x0000000000126274     0x42f3 /tmp/ccRyGcYP.debug.temp.o
                0x0000000000126274                objset.c.2ca20946
 .debug_info    0x000000000012a567     0x2c67 /tmp/ccAHAs0P.debug.temp.o
                0x000000000012a567                objsingleton.c.dd329b75
 .debug_info    0x000000000012d1ce     0x2cfc /tmp/cczhehoQ.debug.temp.o
                0x000000000012d1ce                objslice.c.8e0987e6
 .debug_info    0x000000000012feca     0x50cd /tmp/ccug3Y4P.debug.temp.o
                0x000000000012feca                objstr.c.d9a3298d
 .debug_info    0x0000000000134f97     0x1ec9 /tmp/ccD7AYUN.debug.temp.o
                0x0000000000134f97                objstrunicode.c.bc591afc
 .debug_info    0x0000000000136e60     0x3a41 /tmp/ccVuAxUM.debug.temp.o
                0x0000000000136e60                objstringio.c.8612bd62
 .debug_info    0x000000000013a8a1     0x3858 /tmp/cc5QxV9Q.debug.temp.o
                0x000000000013a8a1                objtuple.c.159279c5
 .debug_info    0x000000000013e0f9     0x4254 /tmp/ccth2sNO.debug.temp.o
                0x000000000013e0f9                objtype.c.eff3825d
 .debug_info    0x000000000014234d     0x3329 /tmp/ccoslknO.debug.temp.o
                0x000000000014234d                objzip.c.5de90483
 .debug_info    0x0000000000145676     0x1c37 /tmp/ccwx3yYQ.debug.temp.o
                0x0000000000145676                opmethods.c.a3703e91
 .debug_info    0x00000000001472ad     0x1fb4 /tmp/ccMROwiQ.debug.temp.o
                0x00000000001472ad                sequence.c.70c3042d
 .debug_info    0x0000000000149261     0x27bd /tmp/ccL5l9PP.debug.temp.o
                0x0000000000149261                stream.c.e7d98c34
 .debug_info    0x000000000014ba1e     0x215f /tmp/cccrSAVM.debug.temp.o
                0x000000000014ba1e                binary.c.755f65e7
 .debug_info    0x000000000014db7d     0x412a /tmp/cc8xmSIO.debug.temp.o
                0x000000000014db7d                builtinimport.c.4d794d99
 .debug_info    0x0000000000151ca7     0x3de5 /tmp/cc7VHQ0N.debug.temp.o
                0x0000000000151ca7                builtinevex.c.0aaa9cab
 .debug_info    0x0000000000155a8c     0x32c6 /tmp/cc16sUoR.debug.temp.o
                0x0000000000155a8c                builtinhelp.c.7b180461
 .debug_info    0x0000000000158d52     0x313e /tmp/cctE6zkP.debug.temp.o
                0x0000000000158d52                modarray.c.397e2437
 .debug_info    0x000000000015be90     0x4c19 /tmp/cc1oHAkP.debug.temp.o
                0x000000000015be90                modbuiltins.c.02a16b95
 .debug_info    0x0000000000160aa9     0x313e /tmp/ccKnhw8P.debug.temp.o
                0x0000000000160aa9                modcollections.c.d83dac1b
 .debug_info    0x0000000000163be7     0x34b5 /tmp/cc5X5dPP.debug.temp.o
                0x0000000000163be7                modgc.c.9acfd16f
 .debug_info    0x000000000016709c     0x37de /tmp/cczm1rvO.debug.temp.o
                0x000000000016709c                modio.c.dd730e26
 .debug_info    0x000000000016a87a     0x3d34 /tmp/ccW9YBSP.debug.temp.o
                0x000000000016a87a                modmath.c.eb5ef36b
 .debug_info    0x000000000016e5ae     0x1b39 /tmp/cc6VMd1O.debug.temp.o
                0x000000000016e5ae                modcmath.c.5bd2c2ac
 .debug_info    0x00000000001700e7     0x3ec1 /tmp/ccPWQ7vN.debug.temp.o
                0x00000000001700e7                modmicropython.c.af7765a1
 .debug_info    0x0000000000173fa8     0x3ad7 /tmp/ccypQDAN.debug.temp.o
                0x0000000000173fa8                modstruct.c.c55cbdb8
 .debug_info    0x0000000000177a7f     0x3be5 /tmp/ccKxur6N.debug.temp.o
                0x0000000000177a7f                modsys.c.39a8d5a4
 .debug_info    0x000000000017b664     0x1666 /tmp/ccPs46iR.debug.temp.o
                0x000000000017b664                moduerrno.c.9be3438d
 .debug_info    0x000000000017ccca     0x1c5c /tmp/ccr7Z6RO.debug.temp.o
                0x000000000017ccca                modthread.c.188711b1
 .debug_info    0x000000000017e926     0x3c1e /tmp/cciyPruR.debug.temp.o
                0x000000000017e926                vm.c.ff315949
 .debug_info    0x0000000000182544     0x1fe5 /tmp/ccwuuBFO.debug.temp.o
                0x0000000000182544                bc.c.2d9e27ee
 .debug_info    0x0000000000184529     0x1c5c /tmp/ccpNQIiN.debug.temp.o
                0x0000000000184529                showbc.c.9a6ed157
 .debug_info    0x0000000000186185     0x38e4 /tmp/ccdHWoPP.debug.temp.o
                0x0000000000186185                repl.c.2f36f9b9
 .debug_info    0x0000000000189a69      0xa1d /tmp/ccRdgplO.debug.temp.o
                0x0000000000189a69                smallint.c.fb4ca3dd
 .debug_info    0x000000000018a486     0x239b /tmp/ccuY66MP.debug.temp.o
                0x000000000018a486                frozenmod.c.6c5d9e83
 .debug_info    0x000000000018c821     0x1c5c /tmp/cc6kuLSP.debug.temp.o
                0x000000000018c821                moductypes.c.31715daf
 .debug_info    0x000000000018e47d     0x37e1 /tmp/ccvR7UzQ.debug.temp.o
                0x000000000018e47d                modujson.c.93ff0d8e
 .debug_info    0x0000000000191c5e     0x1ec9 /tmp/ccPM3KyQ.debug.temp.o
                0x0000000000191c5e                modure.c.ed9b86bc
 .debug_info    0x0000000000193b27     0x1dcc /tmp/ccwgpoMQ.debug.temp.o
                0x0000000000193b27                moduzlib.c.fbd9847d
 .debug_info    0x00000000001958f3     0x1c5c /tmp/ccyU1gXP.debug.temp.o
                0x00000000001958f3                moduheapq.c.5dd291a1
 .debug_info    0x000000000019754f     0x1c5c /tmp/ccBDI6dN.debug.temp.o
                0x000000000019754f                modutimeq.c.785b2ea3
 .debug_info    0x00000000001991ab     0x1c5c /tmp/ccj5fwyN.debug.temp.o
                0x00000000001991ab                moduhashlib.c.15dcd013
 .debug_info    0x000000000019ae07      0x97f /tmp/ccNESa8O.debug.temp.o
                0x000000000019ae07                moducryptolib.c.6fd7f259
 .debug_info    0x000000000019b786     0x1fef /tmp/cc7zVLZN.debug.temp.o
                0x000000000019b786                modubinascii.c.8afacd62
 .debug_info    0x000000000019d775     0x1745 /tmp/ccALQBuR.debug.temp.o
                0x000000000019d775                virtpin.c.27330f03
 .debug_info    0x000000000019eeba     0x3389 /tmp/ccfV09NP.debug.temp.o
                0x000000000019eeba                machine_mem.c.24b3d816
 .debug_info    0x00000000001a2243     0x334b /tmp/ccfPKSmP.debug.temp.o
                0x00000000001a2243                machine_pinbase.c.a97944eb
 .debug_info    0x00000000001a558e     0x35d8 /tmp/ccNugVSN.debug.temp.o
                0x00000000001a558e                machine_signal.c.c1190307
 .debug_info    0x00000000001a8b66     0x235d /tmp/ccpRD0ZN.debug.temp.o
                0x00000000001a8b66                machine_pulse.c.75e4019f
 .debug_info    0x00000000001aaec3     0x4e6b /tmp/ccedRtwN.debug.temp.o
                0x00000000001aaec3                machine_i2c.c.94cb10c1
 .debug_info    0x00000000001afd2e     0x24d2 /tmp/ccGwJxvQ.debug.temp.o
                0x00000000001afd2e                machine_spi.c.9717fd2c
 .debug_info    0x00000000001b2200     0x24de /tmp/ccXq4xgN.debug.temp.o
                0x00000000001b2200                modbluetooth.c.173284a7
 .debug_info    0x00000000001b46de     0x1dcc /tmp/ccAtTFNQ.debug.temp.o
                0x00000000001b46de                modussl_axtls.c.d5bbfa11
 .debug_info    0x00000000001b64aa      0x97f /tmp/cc06OU7N.debug.temp.o
                0x00000000001b64aa                modussl_mbedtls.c.b840b0a0
 .debug_info    0x00000000001b6e29     0x1c5c /tmp/ccj5yFtR.debug.temp.o
                0x00000000001b6e29                modurandom.c.34f6335f
 .debug_info    0x00000000001b8a85      0x97f /tmp/ccuhjPTM.debug.temp.o
                0x00000000001b8a85                moduselect.c.9fc256ba
 .debug_info    0x00000000001b9404     0x1dcc /tmp/ccHFr8ZQ.debug.temp.o
                0x00000000001b9404                moduwebsocket.c.70169137
 .debug_info    0x00000000001bb1d0     0x21bf /tmp/cc3Ncc7O.debug.temp.o
                0x00000000001bb1d0                modwebrepl.c.ef4f889a
 .debug_info    0x00000000001bd38f     0x1c5c /tmp/cc7x5gCQ.debug.temp.o
                0x00000000001bd38f                modframebuf.c.d5628398
 .debug_info    0x00000000001befeb     0x3fec /tmp/ccResWAN.debug.temp.o
                0x00000000001befeb                vfs.c.8fbb04a3
 .debug_info    0x00000000001c2fd7     0x3707 /tmp/cc4tSOhQ.debug.temp.o
                0x00000000001c2fd7                vfs_blockdev.c.61a3348b
 .debug_info    0x00000000001c66de     0x2016 /tmp/ccpbqx8M.debug.temp.o
                0x00000000001c66de                vfs_reader.c.ac3f3130
 .debug_info    0x00000000001c86f4     0x1e39 /tmp/cctldAmO.debug.temp.o
                0x00000000001c86f4                vfs_posix.c.bd9f2f5d
 .debug_info    0x00000000001ca52d     0x1df0 /tmp/ccf9RJ3O.debug.temp.o
                0x00000000001ca52d                vfs_posix_file.c.eb80e8eb
 .debug_info    0x00000000001cc31d      0x97f /tmp/ccdE9HHN.debug.temp.o
                0x00000000001cc31d                vfs_fat.c.38aee3ec
 .debug_info    0x00000000001ccc9c      0x97f /tmp/ccI1LqtQ.debug.temp.o
                0x00000000001ccc9c                vfs_fat_diskio.c.e0be1561
 .debug_info    0x00000000001cd61b      0x97f /tmp/ccA9E6eR.debug.temp.o
                0x00000000001cd61b                vfs_fat_file.c.184ebd33
 .debug_info    0x00000000001cdf9a     0x4cda /tmp/ccgAmPGN.debug.temp.o
                0x00000000001cdf9a                vfs_lfs.c.b53432c5
 .debug_info    0x00000000001d2c74     0x2514 /tmp/ccB9OaoR.debug.temp.o
                0x00000000001d2c74                utime_mphal.c.41923038
 .debug_info    0x00000000001d5188     0x1de4 /tmp/ccU4Hp4P.debug.temp.o
                0x00000000001d5188                uos_dupterm.c.9ccba433
 .debug_info    0x00000000001d6f6c     0x1c64 /tmp/ccvJdajQ.debug.temp.o
                0x00000000001d6f6c                abort_.c.39e5ed5c
 .debug_info    0x00000000001d8bd0     0x1f71 /tmp/cciArTWQ.debug.temp.o
                0x00000000001d8bd0                printf.c.373b6963
 .debug_info    0x00000000001dab41     0x98e2 /tmp/ccgRgpqR.debug.temp.o
                0x00000000001dab41                frozen_content.c.5227d6ad
 .debug_info    0x00000000001e4423     0x43c5 /tmp/ccz7dJaP.debug.temp.o
                0x00000000001e4423                main.c.ed4ce1db
 .debug_info    0x00000000001e87e8     0x2627 /tmp/ccbk495O.debug.temp.o
                0x00000000001e87e8                mphalport.c.d8149f0d
 .debug_info    0x00000000001eae0f     0x1b41 /tmp/cc8BBNUO.debug.temp.o
                0x00000000001eae0f                help.c.aa7f9ba7
 .debug_info    0x00000000001ec950     0x174b /tmp/ccAZ75iQ.debug.temp.o
                0x00000000001ec950                gccollect.c.95ab7ec6
 .debug_info    0x00000000001ee09b     0x3a7b /tmp/ccxhUVaN.debug.temp.o
                0x00000000001ee09b                pin_named_pins.c.d01c5655
 .debug_info    0x00000000001f1b16     0x1c8c /tmp/ccnZejDN.debug.temp.o
                0x00000000001f1b16                fatfs_port.c.9f3f0145
 .debug_info    0x00000000001f37a2      0x97f /tmp/cc0KeHOP.debug.temp.o
                0x00000000001f37a2                flash.c.2a900434
 .debug_info    0x00000000001f4121     0x1d73 /tmp/cctNpjhO.debug.temp.o
                0x00000000001f4121                softpwm.c.39989f03
 .debug_info    0x00000000001f5e94     0x1d73 /tmp/ccEcqO4N.debug.temp.o
                0x00000000001f5e94                ticker.c.7523cad7
 .debug_info    0x00000000001f7c07     0x2481 /tmp/ccXvjJQM.debug.temp.o
                0x00000000001f7c07                wdt.c.61bd57e7
 .debug_info    0x00000000001fa088     0x66b6 /tmp/ccGyCV5N.debug.temp.o
                0x00000000001fa088                ble_drv.c.adbfb8c5
 .debug_info    0x000000000020073e     0x29b9 /tmp/cc1a1k4M.debug.temp.o
                0x000000000020073e                ble_uart.c.c94270b4
 .debug_info    0x00000000002030f7      0x148 /tmp/ccOfj2WQ.debug.temp.o
                0x00000000002030f7                startup_nrf52832.c.fa7d99e2
 .debug_info    0x000000000020323f     0x4d87 /tmp/ccfVgKtO.debug.temp.o
                0x000000000020323f                bma42x.c.72bb7e8b
 .debug_info    0x0000000000207fc6     0x18b3 /tmp/ccmg64uR.debug.temp.o
                0x0000000000207fc6                bma421.c.63021b88
 .debug_info    0x0000000000209879     0x370e /tmp/ccuqU33O.debug.temp.o
                0x0000000000209879                bma4.c.16d6cdef
 .debug_info    0x000000000020cf87     0x18c7 /tmp/ccawfiAQ.debug.temp.o
                0x000000000020cf87                bma423.c.5f973d8d
 .debug_info    0x000000000020e84e     0x3ef3 /tmp/ccR1dmiO.debug.temp.o
                0x000000000020e84e                lfs2.c.32f3a959
 .debug_info    0x0000000000212741      0x9ce /tmp/cckAj23O.debug.temp.o
                0x0000000000212741                lfs2_util.c.0b57bf7c
 .debug_info    0x000000000021310f     0x2637 /tmp/cc1WLeyO.debug.temp.o
                0x000000000021310f                nrfx_prs.c.f1ac1be9
 .debug_info    0x0000000000215746     0x33cf /tmp/ccsbbpwP.debug.temp.o
                0x0000000000215746                nrfx_uart.c.b14ea7a7
 .debug_info    0x0000000000218b15     0x176a /tmp/ccBBQ5XQ.debug.temp.o
                0x0000000000218b15                nrfx_adc.c.1397c7fb
 .debug_info    0x000000000021a27f     0x34a0 /tmp/ccgwoJjO.debug.temp.o
                0x000000000021a27f                nrfx_saadc.c.f66401a6
 .debug_info    0x000000000021d71f     0x176a /tmp/ccDN8JUN.debug.temp.o
                0x000000000021d71f                nrfx_rng.c.318420a8
 .debug_info    0x000000000021ee89     0x3609 /tmp/cc7bPZgN.debug.temp.o
                0x000000000021ee89                nrfx_twi.c.7788b9fe
 .debug_info    0x0000000000222492     0x310e /tmp/cc47GgZN.debug.temp.o
                0x0000000000222492                nrfx_spi.c.8740ceda
 .debug_info    0x00000000002255a0     0x176a /tmp/ccOjtzJQ.debug.temp.o
                0x00000000002255a0                nrfx_spim.c.a71fa276
 .debug_info    0x0000000000226d0a     0x2d11 /tmp/ccGrETyP.debug.temp.o
                0x0000000000226d0a                nrfx_rtc.c.9fef3825
 .debug_info    0x0000000000229a1b     0x2f97 /tmp/cc4Gt1kR.debug.temp.o
                0x0000000000229a1b                nrfx_timer.c.b591c7fe
 .debug_info    0x000000000022c9b2     0x3676 /tmp/ccGT1YiP.debug.temp.o
                0x000000000022c9b2                nrfx_pwm.c.462bd013
 .debug_info    0x0000000000230028     0x3aab /tmp/ccJFyL3N.debug.temp.o
                0x0000000000230028                nrfx_gpiote.c.c72ee224
 .debug_info    0x0000000000233ad3     0x21fe /tmp/cckPmVlO.debug.temp.o
                0x0000000000233ad3                nrfx_nvmc.c.ccbef6bd
 .debug_info    0x0000000000235cd1     0x176a /tmp/ccJ19WxN.debug.temp.o
                0x0000000000235cd1                nrfx_power.c.9b69b1d8
 .debug_info    0x000000000023743b     0x176a /tmp/ccNGoTFN.debug.temp.o
                0x000000000023743b                nrfx_clock.c.9cf02830
 .debug_info    0x0000000000238ba5     0x43c9 /tmp/cc0uzbvR.debug.temp.o
                0x0000000000238ba5                modmachine.c.88501423
 .debug_info    0x000000000023cf6e     0x2582 /tmp/ccMc2upR.debug.temp.o
                0x000000000023cf6e                uart.c.566cfc0f
 .debug_info    0x000000000023f4f0     0x476f /tmp/ccT6OGsO.debug.temp.o
                0x000000000023f4f0                spi.c.642f6122
 .debug_info    0x0000000000243c5f     0x41c1 /tmp/ccBRuSgN.debug.temp.o
                0x0000000000243c5f                i2c.c.69b0413b
 .debug_info    0x0000000000247e20     0x416a /tmp/cc6JDLzO.debug.temp.o
                0x0000000000247e20                adc.c.2fc0fd8b
 .debug_info    0x000000000024bf8a     0x4930 /tmp/ccymIGRQ.debug.temp.o
                0x000000000024bf8a                pin.c.dc71462a
 .debug_info    0x00000000002508ba     0x3bb9 /tmp/ccCWJT1Q.debug.temp.o
                0x00000000002508ba                timer.c.70fc5152
 .debug_info    0x0000000000254473     0x3fe6 /tmp/ccA2itiQ.debug.temp.o
                0x0000000000254473                rtcounter.c.02a8fbde
 .debug_info    0x0000000000258459     0x4745 /tmp/ccUwCtsN.debug.temp.o
                0x0000000000258459                pwm.c.197ed63d
 .debug_info    0x000000000025cb9e     0x3eb7 /tmp/ccGSjh5Q.debug.temp.o
                0x000000000025cb9e                temp.c.dc29f161
 .debug_info    0x0000000000260a55     0x3ee0 /tmp/ccf8ZagQ.debug.temp.o
                0x0000000000260a55                moduos.c.e2735163
 .debug_info    0x0000000000264935     0x1fc1 /tmp/ccqyczSN.debug.temp.o
                0x0000000000264935                microbitfs.c.b1b65160
 .debug_info    0x00000000002668f6     0x2e03 /tmp/cc74KfzN.debug.temp.o
                0x00000000002668f6                modutime.c.01896e42
 .debug_info    0x00000000002696f9     0x3d81 /tmp/cciAUobN.debug.temp.o
                0x00000000002696f9                modboard.c.b76b02d6
 .debug_info    0x000000000026d47a     0x23d6 /tmp/ccLPJUaR.debug.temp.o
                0x000000000026d47a                led.c.a43c7dbc
 .debug_info    0x000000000026f850     0x2d25 /tmp/cc1SsG0Q.debug.temp.o
                0x000000000026f850                modubluepy.c.f716c972
 .debug_info    0x0000000000272575     0x40f3 /tmp/cciTjzbQ.debug.temp.o
                0x0000000000272575                ubluepy_peripheral.c.e5159537
 .debug_info    0x0000000000276668     0x3878 /tmp/cc9O5q5O.debug.temp.o
                0x0000000000276668                ubluepy_service.c.63374cf0
 .debug_info    0x0000000000279ee0     0x39b4 /tmp/cc9h465N.debug.temp.o
                0x0000000000279ee0                ubluepy_characteristic.c.bf0e5ce3
 .debug_info    0x000000000027d894     0x383f /tmp/ccu7fsTM.debug.temp.o
                0x000000000027d894                ubluepy_uuid.c.70a34306
 .debug_info    0x00000000002810d3     0x33e3 /tmp/ccqxcZtQ.debug.temp.o
                0x00000000002810d3                ubluepy_delegate.c.c046ce98
 .debug_info    0x00000000002844b6     0x3316 /tmp/ccrHBPMP.debug.temp.o
                0x00000000002844b6                ubluepy_constants.c.c8cf1f07
 .debug_info    0x00000000002877cc     0x37b5 /tmp/cc12wz6Q.debug.temp.o
                0x00000000002877cc                ubluepy_descriptor.c.85ef940c
 .debug_info    0x000000000028af81     0x3e6d /tmp/ccyrgcuO.debug.temp.o
                0x000000000028af81                ubluepy_scanner.c.f9eac04b
 .debug_info    0x000000000028edee     0x386b /tmp/ccf9BdLO.debug.temp.o
                0x000000000028edee                ubluepy_scan_entry.c.c4f9e8a5
 .debug_info    0x0000000000292659     0x1d73 /tmp/ccLHJqVO.debug.temp.o
                0x0000000000292659                modmusic.c.60241b29
 .debug_info    0x00000000002943cc     0x1dbe /tmp/ccdHbTLN.debug.temp.o
                0x00000000002943cc                musictunes.c.d75a57e9
 .debug_info    0x000000000029618a     0x342e /tmp/cc1JhZgP.debug.temp.o
                0x000000000029618a                modble.c.2e21c879
 .debug_info    0x00000000002995b8     0x3a23 /tmp/ccHlW1nN.debug.temp.o
                0x00000000002995b8                modrandom.c.6c08a8bd
 .debug_info    0x000000000029cfdb     0x10c6 /tmp/cc0yaw1P.debug.temp.o
                0x000000000029cfdb                system_nrf52.c.773d0fd2
 .debug_info    0x000000000029e0a1     0x1a7e /tmp/ccqUU94N.debug.temp.o
                0x000000000029e0a1                math.c.b4045186
 .debug_info    0x000000000029fb1f      0x9c0 /tmp/ccXkuJlN.debug.temp.o
                0x000000000029fb1f                fmodf.c.b9273786
 .debug_info    0x00000000002a04df      0x99d /tmp/ccRnRq2M.debug.temp.o
                0x00000000002a04df                nearbyintf.c.9644bb3e
 .debug_info    0x00000000002a0e7c      0xa1c /tmp/ccKcOpSP.debug.temp.o
                0x00000000002a0e7c                ef_sqrt.c.db68af72
 .debug_info    0x00000000002a1898      0xb09 /tmp/ccb45OQO.debug.temp.o
                0x00000000002a1898                kf_rem_pio2.c.67cc75ee
 .debug_info    0x00000000002a23a1      0xa3a /tmp/ccbkj4XP.debug.temp.o
                0x00000000002a23a1                kf_sin.c.de0cab14
 .debug_info    0x00000000002a2ddb      0xa57 /tmp/ccj2WLnR.debug.temp.o
                0x00000000002a2ddb                kf_cos.c.cd4f57c1
 .debug_info    0x00000000002a3832      0xb4b /tmp/ccl2gPpO.debug.temp.o
                0x00000000002a3832                kf_tan.c.d660c546
 .debug_info    0x00000000002a437d      0xb68 /tmp/ccIYB5LN.debug.temp.o
                0x00000000002a437d                ef_rem_pio2.c.a2387e36
 .debug_info    0x00000000002a4ee5      0x9c0 /tmp/ccJ59ocR.debug.temp.o
                0x00000000002a4ee5                sf_sin.c.9ecb0d13
 .debug_info    0x00000000002a58a5      0x9c0 /tmp/cc8aQg6P.debug.temp.o
                0x00000000002a58a5                sf_cos.c.32ea4004
 .debug_info    0x00000000002a6265      0x9c0 /tmp/cc54DH6Q.debug.temp.o
                0x00000000002a6265                sf_tan.c.dfedcbd7
 .debug_info    0x00000000002a6c25      0x9ed /tmp/cckZ5btO.debug.temp.o
                0x00000000002a6c25                sf_frexp.c.6a635505
 .debug_info    0x00000000002a7612      0xa59 /tmp/ccoszf1O.debug.temp.o
                0x00000000002a7612                sf_modf.c.4ccc021f
 .debug_info    0x00000000002a806b      0x941 /tmp/cco1VkpN.debug.temp.o
                0x00000000002a806b                sf_ldexp.c.9088e595
 .debug_info    0x00000000002a89ac      0xb36 /tmp/cciJxS9N.debug.temp.o
                0x00000000002a89ac                asinfacosf.c.eb9b5b70
 .debug_info    0x00000000002a94e2      0xa7b /tmp/ccQki8gP.debug.temp.o
                0x00000000002a94e2                atanf.c.c95e2f06
 .debug_info    0x00000000002a9f5d      0xa01 /tmp/ccd3yHxO.debug.temp.o
                0x00000000002a9f5d                atan2f.c.1e9186a7
 .debug_info    0x00000000002aa95e      0xd65 /tmp/ccs6EbKO.debug.temp.o
                0x00000000002aa95e                string0.c.d660f148
 .debug_info    0x00000000002ab6c3     0x26a8 /tmp/cci7VVJQ.debug.temp.o
                0x00000000002ab6c3                readline.c.2ba59f00
 .debug_info    0x00000000002add6b     0x4094 /tmp/ccW1pTsQ.debug.temp.o
                0x00000000002add6b                pyexec.c.ed06dbaf
 .debug_info    0x00000000002b1dff     0x36d3 /tmp/cctJtCFO.debug.temp.o
                0x00000000002b1dff                sys_stdio_mphal.c.215293c7
 .debug_info    0x00000000002b54d2     0x1c5b /tmp/ccxpOjNQ.debug.temp.o
                0x00000000002b54d2                interrupt_char.c.6bb2d4f1
 .debug_info    0x00000000002b712d     0x192d /tmp/ccQ7MHpO.debug.temp.o
                0x00000000002b712d                timeutils.c.ebcc7463
 .debug_info    0x00000000002b8a5a     0x33c7 /tmp/ccw6P6bQ.debug.temp.o
                0x00000000002b8a5a                pins_gen.c.69ac6bf5
 .debug_info    0x00000000002bbe21     0x1c34 build-pinetime-s132/py/nlrx86.o
 .debug_info    0x00000000002bda55     0x1c34 build-pinetime-s132/py/nlrx64.o
 .debug_info    0x00000000002bf689     0x1cd9 build-pinetime-s132/py/nlrthumb.o
 .debug_info    0x00000000002c1362     0x1c34 build-pinetime-s132/py/nlrpowerpc.o
 .debug_info    0x00000000002c2f96     0x1c34 build-pinetime-s132/py/nlrxtensa.o
 .debug_info    0x00000000002c4bca     0x1c34 build-pinetime-s132/py/nlrsetjmp.o

.debug_abbrev   0x0000000000000000    0x2b542
 .debug_abbrev  0x0000000000000000      0x3bc /tmp/firmware.elf.fkNs2M.ltrans0.ltrans.o
 .debug_abbrev  0x00000000000003bc      0x361 /tmp/firmware.elf.fkNs2M.ltrans1.ltrans.o
 .debug_abbrev  0x000000000000071d      0x37d /tmp/firmware.elf.fkNs2M.ltrans2.ltrans.o
 .debug_abbrev  0x0000000000000a9a      0x293 /tmp/firmware.elf.fkNs2M.ltrans3.ltrans.o
 .debug_abbrev  0x0000000000000d2d      0x2ed /tmp/firmware.elf.fkNs2M.ltrans4.ltrans.o
 .debug_abbrev  0x000000000000101a      0x2d4 /tmp/firmware.elf.fkNs2M.ltrans5.ltrans.o
 .debug_abbrev  0x00000000000012ee      0x268 /tmp/cc93ME0M.debug.temp.o
 .debug_abbrev  0x0000000000001556      0x29f /tmp/cce4P40N.debug.temp.o
 .debug_abbrev  0x00000000000017f5      0x2d2 /tmp/ccUShPpQ.debug.temp.o
 .debug_abbrev  0x0000000000001ac7      0x38a /tmp/cceFSu6P.debug.temp.o
 .debug_abbrev  0x0000000000001e51      0x260 /tmp/ccdzT4VM.debug.temp.o
 .debug_abbrev  0x00000000000020b1      0x372 /tmp/ccNViw3Q.debug.temp.o
 .debug_abbrev  0x0000000000002423      0x31f /tmp/ccaeSOVO.debug.temp.o
 .debug_abbrev  0x0000000000002742      0x3af /tmp/ccKvZ7vP.debug.temp.o
 .debug_abbrev  0x0000000000002af1      0x206 /tmp/ccICjyfQ.debug.temp.o
 .debug_abbrev  0x0000000000002cf7      0x2f9 /tmp/ccn2vtnQ.debug.temp.o
 .debug_abbrev  0x0000000000002ff0      0x2d1 /tmp/ccjVtRPQ.debug.temp.o
 .debug_abbrev  0x00000000000032c1      0x35a /tmp/ccDq2BXN.debug.temp.o
 .debug_abbrev  0x000000000000361b      0x3c5 /tmp/cciUpSSM.debug.temp.o
 .debug_abbrev  0x00000000000039e0      0x2f6 /tmp/ccZn2DtO.debug.temp.o
 .debug_abbrev  0x0000000000003cd6      0x37d /tmp/ccmIpRtR.debug.temp.o
 .debug_abbrev  0x0000000000004053      0x2c6 /tmp/ccP2KyrR.debug.temp.o
 .debug_abbrev  0x0000000000004319      0x392 /tmp/ccv6jvYM.debug.temp.o
 .debug_abbrev  0x00000000000046ab      0x290 /tmp/cceQx5jN.debug.temp.o
 .debug_abbrev  0x000000000000493b      0x1b1 /tmp/cc28lXzN.debug.temp.o
 .debug_abbrev  0x0000000000004aec      0x1b1 /tmp/ccZ3gIEQ.debug.temp.o
 .debug_abbrev  0x0000000000004c9d      0x1b1 /tmp/ccjCKAPP.debug.temp.o
 .debug_abbrev  0x0000000000004e4e      0x28a /tmp/cc4FifzO.debug.temp.o
 .debug_abbrev  0x00000000000050d8      0x3a8 /tmp/ccnVoEHP.debug.temp.o
 .debug_abbrev  0x0000000000005480      0x3ab /tmp/ccx7QyUQ.debug.temp.o
 .debug_abbrev  0x000000000000582b      0x275 /tmp/ccpng4nR.debug.temp.o
 .debug_abbrev  0x0000000000005aa0      0x1b1 /tmp/cc3Z3kZO.debug.temp.o
 .debug_abbrev  0x0000000000005c51      0x1b1 /tmp/ccc6wqHO.debug.temp.o
 .debug_abbrev  0x0000000000005e02      0x1b1 /tmp/ccOHxoqO.debug.temp.o
 .debug_abbrev  0x0000000000005fb3      0x1b1 /tmp/cc1LyLhP.debug.temp.o
 .debug_abbrev  0x0000000000006164      0x275 /tmp/ccDU7MoN.debug.temp.o
 .debug_abbrev  0x00000000000063d9      0x1b1 /tmp/cc0B9mKN.debug.temp.o
 .debug_abbrev  0x000000000000658a      0x26e /tmp/ccuSjZDO.debug.temp.o
 .debug_abbrev  0x00000000000067f8      0x200 /tmp/cckn69GQ.debug.temp.o
 .debug_abbrev  0x00000000000069f8      0x30e /tmp/ccxjmsBQ.debug.temp.o
 .debug_abbrev  0x0000000000006d06      0x2d7 /tmp/ccDNtTuO.debug.temp.o
 .debug_abbrev  0x0000000000006fdd      0x38f /tmp/ccv54H7M.debug.temp.o
 .debug_abbrev  0x000000000000736c      0x426 /tmp/ccmUAT5N.debug.temp.o
 .debug_abbrev  0x0000000000007792      0x2ba /tmp/ccy8zpVP.debug.temp.o
 .debug_abbrev  0x0000000000007a4c      0x2da /tmp/ccHUzH7M.debug.temp.o
 .debug_abbrev  0x0000000000007d26      0x34b /tmp/ccUada5O.debug.temp.o
 .debug_abbrev  0x0000000000008071       0xc6 /tmp/ccPnOOEQ.debug.temp.o
 .debug_abbrev  0x0000000000008137      0x2d7 /tmp/ccw9RqrO.debug.temp.o
 .debug_abbrev  0x000000000000840e      0x315 /tmp/ccipaprO.debug.temp.o
 .debug_abbrev  0x0000000000008723      0x275 /tmp/ccaKT8oO.debug.temp.o
 .debug_abbrev  0x0000000000008998      0x260 /tmp/ccT4y8hN.debug.temp.o
 .debug_abbrev  0x0000000000008bf8      0x3af /tmp/ccqme5fQ.debug.temp.o
 .debug_abbrev  0x0000000000008fa7      0x390 /tmp/ccYYwCaO.debug.temp.o
 .debug_abbrev  0x0000000000009337      0x379 /tmp/ccQwFyWM.debug.temp.o
 .debug_abbrev  0x00000000000096b0      0x2ba /tmp/ccdyEzJQ.debug.temp.o
 .debug_abbrev  0x000000000000996a      0x2e7 /tmp/ccYcJ1uO.debug.temp.o
 .debug_abbrev  0x0000000000009c51      0x2e2 /tmp/ccwj3EXM.debug.temp.o
 .debug_abbrev  0x0000000000009f33      0x2a5 /tmp/ccJaTFqR.debug.temp.o
 .debug_abbrev  0x000000000000a1d8      0x2f1 /tmp/ccjWW6jP.debug.temp.o
 .debug_abbrev  0x000000000000a4c9      0x34a /tmp/ccaW2ebN.debug.temp.o
 .debug_abbrev  0x000000000000a813      0x1b1 /tmp/ccAVqDDN.debug.temp.o
 .debug_abbrev  0x000000000000a9c4      0x3a5 /tmp/ccwPhI8O.debug.temp.o
 .debug_abbrev  0x000000000000ad69      0x2cc /tmp/cc1J15UO.debug.temp.o
 .debug_abbrev  0x000000000000b035      0x3bc /tmp/cc1RzNSO.debug.temp.o
 .debug_abbrev  0x000000000000b3f1      0x2ca /tmp/cc0hh2tR.debug.temp.o
 .debug_abbrev  0x000000000000b6bb      0x33f /tmp/cc4iH1VN.debug.temp.o
 .debug_abbrev  0x000000000000b9fa      0x38e /tmp/ccKPVk0P.debug.temp.o
 .debug_abbrev  0x000000000000bd88      0x357 /tmp/cce9YhTM.debug.temp.o
 .debug_abbrev  0x000000000000c0df      0x2ca /tmp/cc3e7NcQ.debug.temp.o
 .debug_abbrev  0x000000000000c3a9      0x3a5 /tmp/ccCXvMcQ.debug.temp.o
 .debug_abbrev  0x000000000000c74e      0x277 /tmp/cckMcd6N.debug.temp.o
 .debug_abbrev  0x000000000000c9c5      0x389 /tmp/ccIp6pbN.debug.temp.o
 .debug_abbrev  0x000000000000cd4e      0x3a1 /tmp/ccidzDqO.debug.temp.o
 .debug_abbrev  0x000000000000d0ef      0x2ca /tmp/cc6efsOO.debug.temp.o
 .debug_abbrev  0x000000000000d3b9      0x35d /tmp/ccXQU4lO.debug.temp.o
 .debug_abbrev  0x000000000000d716      0x2e7 /tmp/ccXif2FN.debug.temp.o
 .debug_abbrev  0x000000000000d9fd      0x2a7 /tmp/ccS27wDP.debug.temp.o
 .debug_abbrev  0x000000000000dca4      0x2e3 /tmp/ccNpM16P.debug.temp.o
 .debug_abbrev  0x000000000000df87      0x259 /tmp/ccTAPjjN.debug.temp.o
 .debug_abbrev  0x000000000000e1e0      0x2fc /tmp/cc1vPN6M.debug.temp.o
 .debug_abbrev  0x000000000000e4dc      0x30e /tmp/ccOCKUBO.debug.temp.o
 .debug_abbrev  0x000000000000e7ea      0x2c5 /tmp/ccVOOObQ.debug.temp.o
 .debug_abbrev  0x000000000000eaaf      0x390 /tmp/ccRyGcYP.debug.temp.o
 .debug_abbrev  0x000000000000ee3f      0x27b /tmp/ccAHAs0P.debug.temp.o
 .debug_abbrev  0x000000000000f0ba      0x29f /tmp/cczhehoQ.debug.temp.o
 .debug_abbrev  0x000000000000f359      0x3c0 /tmp/ccug3Y4P.debug.temp.o
 .debug_abbrev  0x000000000000f719      0x260 /tmp/ccD7AYUN.debug.temp.o
 .debug_abbrev  0x000000000000f979      0x308 /tmp/ccVuAxUM.debug.temp.o
 .debug_abbrev  0x000000000000fc81      0x392 /tmp/cc5QxV9Q.debug.temp.o
 .debug_abbrev  0x0000000000010013      0x3c3 /tmp/ccth2sNO.debug.temp.o
 .debug_abbrev  0x00000000000103d6      0x2ca /tmp/ccoslknO.debug.temp.o
 .debug_abbrev  0x00000000000106a0      0x277 /tmp/ccwx3yYQ.debug.temp.o
 .debug_abbrev  0x0000000000010917      0x31f /tmp/ccMROwiQ.debug.temp.o
 .debug_abbrev  0x0000000000010c36      0x374 /tmp/ccL5l9PP.debug.temp.o
 .debug_abbrev  0x0000000000010faa      0x35b /tmp/cccrSAVM.debug.temp.o
 .debug_abbrev  0x0000000000011305      0x388 /tmp/cc8xmSIO.debug.temp.o
 .debug_abbrev  0x000000000001168d      0x317 /tmp/cc7VHQ0N.debug.temp.o
 .debug_abbrev  0x00000000000119a4      0x2ff /tmp/cc16sUoR.debug.temp.o
 .debug_abbrev  0x0000000000011ca3      0x24f /tmp/cctE6zkP.debug.temp.o
 .debug_abbrev  0x0000000000011ef2      0x3de /tmp/cc1oHAkP.debug.temp.o
 .debug_abbrev  0x00000000000122d0      0x24f /tmp/ccKnhw8P.debug.temp.o
 .debug_abbrev  0x000000000001251f      0x2e6 /tmp/cc5X5dPP.debug.temp.o
 .debug_abbrev  0x0000000000012805      0x294 /tmp/cczm1rvO.debug.temp.o
 .debug_abbrev  0x0000000000012a99      0x32d /tmp/ccW9YBSP.debug.temp.o
 .debug_abbrev  0x0000000000012dc6      0x22a /tmp/cc6VMd1O.debug.temp.o
 .debug_abbrev  0x0000000000012ff0      0x32b /tmp/ccPWQ7vN.debug.temp.o
 .debug_abbrev  0x000000000001331b      0x30c /tmp/ccypQDAN.debug.temp.o
 .debug_abbrev  0x0000000000013627      0x2ef /tmp/ccKxur6N.debug.temp.o
 .debug_abbrev  0x0000000000013916      0x225 /tmp/ccPs46iR.debug.temp.o
 .debug_abbrev  0x0000000000013b3b      0x260 /tmp/ccr7Z6RO.debug.temp.o
 .debug_abbrev  0x0000000000013d9b      0x32f /tmp/cciyPruR.debug.temp.o
 .debug_abbrev  0x00000000000140ca      0x349 /tmp/ccwuuBFO.debug.temp.o
 .debug_abbrev  0x0000000000014413      0x260 /tmp/ccpNQIiN.debug.temp.o
 .debug_abbrev  0x0000000000014673      0x2d7 /tmp/ccdHWoPP.debug.temp.o
 .debug_abbrev  0x000000000001494a      0x1f7 /tmp/ccRdgplO.debug.temp.o
 .debug_abbrev  0x0000000000014b41      0x2f1 /tmp/ccuY66MP.debug.temp.o
 .debug_abbrev  0x0000000000014e32      0x260 /tmp/cc6kuLSP.debug.temp.o
 .debug_abbrev  0x0000000000015092      0x33e /tmp/ccvR7UzQ.debug.temp.o
 .debug_abbrev  0x00000000000153d0      0x260 /tmp/ccPM3KyQ.debug.temp.o
 .debug_abbrev  0x0000000000015630      0x260 /tmp/ccwgpoMQ.debug.temp.o
 .debug_abbrev  0x0000000000015890      0x260 /tmp/ccyU1gXP.debug.temp.o
 .debug_abbrev  0x0000000000015af0      0x260 /tmp/ccBDI6dN.debug.temp.o
 .debug_abbrev  0x0000000000015d50      0x260 /tmp/ccj5fwyN.debug.temp.o
 .debug_abbrev  0x0000000000015fb0      0x1b1 /tmp/ccNESa8O.debug.temp.o
 .debug_abbrev  0x0000000000016161      0x2e7 /tmp/cc7zVLZN.debug.temp.o
 .debug_abbrev  0x0000000000016448      0x287 /tmp/ccALQBuR.debug.temp.o
 .debug_abbrev  0x00000000000166cf      0x2e4 /tmp/ccfV09NP.debug.temp.o
 .debug_abbrev  0x00000000000169b3      0x2d5 /tmp/ccfPKSmP.debug.temp.o
 .debug_abbrev  0x0000000000016c88      0x2e1 /tmp/ccNugVSN.debug.temp.o
 .debug_abbrev  0x0000000000016f69      0x29e /tmp/ccpRD0ZN.debug.temp.o
 .debug_abbrev  0x0000000000017207      0x3ea /tmp/ccedRtwN.debug.temp.o
 .debug_abbrev  0x00000000000175f1      0x29e /tmp/ccGwJxvQ.debug.temp.o
 .debug_abbrev  0x000000000001788f      0x29e /tmp/ccXq4xgN.debug.temp.o
 .debug_abbrev  0x0000000000017b2d      0x260 /tmp/ccAtTFNQ.debug.temp.o
 .debug_abbrev  0x0000000000017d8d      0x1b1 /tmp/cc06OU7N.debug.temp.o
 .debug_abbrev  0x0000000000017f3e      0x260 /tmp/ccj5yFtR.debug.temp.o
 .debug_abbrev  0x000000000001819e      0x1b1 /tmp/ccuhjPTM.debug.temp.o
 .debug_abbrev  0x000000000001834f      0x260 /tmp/ccHFr8ZQ.debug.temp.o
 .debug_abbrev  0x00000000000185af      0x260 /tmp/cc3Ncc7O.debug.temp.o
 .debug_abbrev  0x000000000001880f      0x260 /tmp/cc7x5gCQ.debug.temp.o
 .debug_abbrev  0x0000000000018a6f      0x36a /tmp/ccResWAN.debug.temp.o
 .debug_abbrev  0x0000000000018dd9      0x2d7 /tmp/cc4tSOhQ.debug.temp.o
 .debug_abbrev  0x00000000000190b0      0x2c7 /tmp/ccpbqx8M.debug.temp.o
 .debug_abbrev  0x0000000000019377      0x260 /tmp/cctldAmO.debug.temp.o
 .debug_abbrev  0x00000000000195d7      0x260 /tmp/ccf9RJ3O.debug.temp.o
 .debug_abbrev  0x0000000000019837      0x1b1 /tmp/ccdE9HHN.debug.temp.o
 .debug_abbrev  0x00000000000199e8      0x1b1 /tmp/ccI1LqtQ.debug.temp.o
 .debug_abbrev  0x0000000000019b99      0x1b1 /tmp/ccA9E6eR.debug.temp.o
 .debug_abbrev  0x0000000000019d4a      0x3b2 /tmp/ccgAmPGN.debug.temp.o
 .debug_abbrev  0x000000000001a0fc      0x309 /tmp/ccB9OaoR.debug.temp.o
 .debug_abbrev  0x000000000001a405      0x260 /tmp/ccU4Hp4P.debug.temp.o
 .debug_abbrev  0x000000000001a665      0x274 /tmp/ccvJdajQ.debug.temp.o
 .debug_abbrev  0x000000000001a8d9      0x32d /tmp/cciArTWQ.debug.temp.o
 .debug_abbrev  0x000000000001ac06      0x2ff /tmp/ccgRgpqR.debug.temp.o
 .debug_abbrev  0x000000000001af05      0x3cf /tmp/ccz7dJaP.debug.temp.o
 .debug_abbrev  0x000000000001b2d4      0x313 /tmp/ccbk495O.debug.temp.o
 .debug_abbrev  0x000000000001b5e7      0x237 /tmp/cc8BBNUO.debug.temp.o
 .debug_abbrev  0x000000000001b81e      0x267 /tmp/ccAZ75iQ.debug.temp.o
 .debug_abbrev  0x000000000001ba85      0x350 /tmp/ccxhUVaN.debug.temp.o
 .debug_abbrev  0x000000000001bdd5      0x273 /tmp/ccnZejDN.debug.temp.o
 .debug_abbrev  0x000000000001c048      0x1b1 /tmp/cc0KeHOP.debug.temp.o
 .debug_abbrev  0x000000000001c1f9      0x297 /tmp/cctNpjhO.debug.temp.o
 .debug_abbrev  0x000000000001c490      0x297 /tmp/ccEcqO4N.debug.temp.o
 .debug_abbrev  0x000000000001c727      0x367 /tmp/ccXvjJQM.debug.temp.o
 .debug_abbrev  0x000000000001ca8e      0x426 /tmp/ccGyCV5N.debug.temp.o
 .debug_abbrev  0x000000000001ceb4      0x360 /tmp/cc1a1k4M.debug.temp.o
 .debug_abbrev  0x000000000001d214       0xb5 /tmp/ccOfj2WQ.debug.temp.o
 .debug_abbrev  0x000000000001d2c9      0x3a7 /tmp/ccfVgKtO.debug.temp.o
 .debug_abbrev  0x000000000001d670      0x2a0 /tmp/ccmg64uR.debug.temp.o
 .debug_abbrev  0x000000000001d910      0x26e /tmp/ccuqU33O.debug.temp.o
 .debug_abbrev  0x000000000001db7e      0x25e /tmp/ccawfiAQ.debug.temp.o
 .debug_abbrev  0x000000000001dddc      0x2ff /tmp/ccR1dmiO.debug.temp.o
 .debug_abbrev  0x000000000001e0db      0x1f9 /tmp/cckAj23O.debug.temp.o
 .debug_abbrev  0x000000000001e2d4      0x384 /tmp/cc1WLeyO.debug.temp.o
 .debug_abbrev  0x000000000001e658      0x3e8 /tmp/ccsbbpwP.debug.temp.o
 .debug_abbrev  0x000000000001ea40      0x22c /tmp/ccBBQ5XQ.debug.temp.o
 .debug_abbrev  0x000000000001ec6c      0x3d7 /tmp/ccgwoJjO.debug.temp.o
 .debug_abbrev  0x000000000001f043      0x22c /tmp/ccDN8JUN.debug.temp.o
 .debug_abbrev  0x000000000001f26f      0x3c4 /tmp/cc7bPZgN.debug.temp.o
 .debug_abbrev  0x000000000001f633      0x3e8 /tmp/cc47GgZN.debug.temp.o
 .debug_abbrev  0x000000000001fa1b      0x22c /tmp/ccOjtzJQ.debug.temp.o
 .debug_abbrev  0x000000000001fc47      0x3d3 /tmp/ccGrETyP.debug.temp.o
 .debug_abbrev  0x000000000002001a      0x38d /tmp/cc4Gt1kR.debug.temp.o
 .debug_abbrev  0x00000000000203a7      0x3d5 /tmp/ccGT1YiP.debug.temp.o
 .debug_abbrev  0x000000000002077c      0x3e6 /tmp/ccJFyL3N.debug.temp.o
 .debug_abbrev  0x0000000000020b62      0x3cd /tmp/cckPmVlO.debug.temp.o
 .debug_abbrev  0x0000000000020f2f      0x22c /tmp/ccJ19WxN.debug.temp.o
 .debug_abbrev  0x000000000002115b      0x22c /tmp/ccNGoTFN.debug.temp.o
 .debug_abbrev  0x0000000000021387      0x361 /tmp/cc0uzbvR.debug.temp.o
 .debug_abbrev  0x00000000000216e8      0x29e /tmp/ccMc2upR.debug.temp.o
 .debug_abbrev  0x0000000000021986      0x3c3 /tmp/ccT6OGsO.debug.temp.o
 .debug_abbrev  0x0000000000021d49      0x338 /tmp/ccBRuSgN.debug.temp.o
 .debug_abbrev  0x0000000000022081      0x372 /tmp/cc6JDLzO.debug.temp.o
 .debug_abbrev  0x00000000000223f3      0x3fc /tmp/ccymIGRQ.debug.temp.o
 .debug_abbrev  0x00000000000227ef      0x31f /tmp/ccCWJT1Q.debug.temp.o
 .debug_abbrev  0x0000000000022b0e      0x38a /tmp/ccA2itiQ.debug.temp.o
 .debug_abbrev  0x0000000000022e98      0x37f /tmp/ccUwCtsN.debug.temp.o
 .debug_abbrev  0x0000000000023217      0x363 /tmp/ccGSjh5Q.debug.temp.o
 .debug_abbrev  0x000000000002357a      0x2d4 /tmp/ccf8ZagQ.debug.temp.o
 .debug_abbrev  0x000000000002384e      0x260 /tmp/ccqyczSN.debug.temp.o
 .debug_abbrev  0x0000000000023aae      0x293 /tmp/cc74KfzN.debug.temp.o
 .debug_abbrev  0x0000000000023d41      0x2c3 /tmp/cciAUobN.debug.temp.o
 .debug_abbrev  0x0000000000024004      0x2e0 /tmp/ccLPJUaR.debug.temp.o
 .debug_abbrev  0x00000000000242e4      0x27b /tmp/cc1SsG0Q.debug.temp.o
 .debug_abbrev  0x000000000002455f      0x355 /tmp/cciTjzbQ.debug.temp.o
 .debug_abbrev  0x00000000000248b4      0x2fd /tmp/cc9O5q5O.debug.temp.o
 .debug_abbrev  0x0000000000024bb1      0x325 /tmp/cc9h465N.debug.temp.o
 .debug_abbrev  0x0000000000024ed6      0x304 /tmp/ccu7fsTM.debug.temp.o
 .debug_abbrev  0x00000000000251da      0x2d8 /tmp/ccqxcZtQ.debug.temp.o
 .debug_abbrev  0x00000000000254b2      0x285 /tmp/ccrHBPMP.debug.temp.o
 .debug_abbrev  0x0000000000025737      0x2f2 /tmp/cc12wz6Q.debug.temp.o
 .debug_abbrev  0x0000000000025a29      0x337 /tmp/ccyrgcuO.debug.temp.o
 .debug_abbrev  0x0000000000025d60      0x2fb /tmp/ccf9BdLO.debug.temp.o
 .debug_abbrev  0x000000000002605b      0x297 /tmp/ccLHJqVO.debug.temp.o
 .debug_abbrev  0x00000000000262f2      0x29e /tmp/ccdHbTLN.debug.temp.o
 .debug_abbrev  0x0000000000026590      0x2c0 /tmp/cc1JhZgP.debug.temp.o
 .debug_abbrev  0x0000000000026850      0x37c /tmp/ccHlW1nN.debug.temp.o
 .debug_abbrev  0x0000000000026bcc      0x1a5 /tmp/cc0yaw1P.debug.temp.o
 .debug_abbrev  0x0000000000026d71      0x2d9 /tmp/ccqUU94N.debug.temp.o
 .debug_abbrev  0x000000000002704a      0x1de /tmp/ccXkuJlN.debug.temp.o
 .debug_abbrev  0x0000000000027228      0x1de /tmp/ccRnRq2M.debug.temp.o
 .debug_abbrev  0x0000000000027406      0x20c /tmp/ccKcOpSP.debug.temp.o
 .debug_abbrev  0x0000000000027612      0x225 /tmp/ccb45OQO.debug.temp.o
 .debug_abbrev  0x0000000000027837      0x205 /tmp/ccbkj4XP.debug.temp.o
 .debug_abbrev  0x0000000000027a3c      0x1fb /tmp/ccj2WLnR.debug.temp.o
 .debug_abbrev  0x0000000000027c37      0x20c /tmp/ccl2gPpO.debug.temp.o
 .debug_abbrev  0x0000000000027e43      0x204 /tmp/ccIYB5LN.debug.temp.o
 .debug_abbrev  0x0000000000028047      0x1ec /tmp/ccJ59ocR.debug.temp.o
 .debug_abbrev  0x0000000000028233      0x1ec /tmp/cc8aQg6P.debug.temp.o
 .debug_abbrev  0x000000000002841f      0x1ec /tmp/cc54DH6Q.debug.temp.o
 .debug_abbrev  0x000000000002860b      0x20c /tmp/cckZ5btO.debug.temp.o
 .debug_abbrev  0x0000000000028817      0x20c /tmp/ccoszf1O.debug.temp.o
 .debug_abbrev  0x0000000000028a23      0x1cf /tmp/cco1VkpN.debug.temp.o
 .debug_abbrev  0x0000000000028bf2      0x21f /tmp/cciJxS9N.debug.temp.o
 .debug_abbrev  0x0000000000028e11      0x211 /tmp/ccQki8gP.debug.temp.o
 .debug_abbrev  0x0000000000029022      0x20c /tmp/ccd3yHxO.debug.temp.o
 .debug_abbrev  0x000000000002922e      0x200 /tmp/ccs6EbKO.debug.temp.o
 .debug_abbrev  0x000000000002942e      0x3b4 /tmp/cci7VVJQ.debug.temp.o
 .debug_abbrev  0x00000000000297e2      0x38f /tmp/ccW1pTsQ.debug.temp.o
 .debug_abbrev  0x0000000000029b71      0x316 /tmp/cctJtCFO.debug.temp.o
 .debug_abbrev  0x0000000000029e87      0x29d /tmp/ccxpOjNQ.debug.temp.o
 .debug_abbrev  0x000000000002a124      0x28d /tmp/ccQ7MHpO.debug.temp.o
 .debug_abbrev  0x000000000002a3b1      0x2cd /tmp/ccw6P6bQ.debug.temp.o
 .debug_abbrev  0x000000000002a67e      0x25b build-pinetime-s132/py/nlrx86.o
 .debug_abbrev  0x000000000002a8d9      0x25b build-pinetime-s132/py/nlrx64.o
 .debug_abbrev  0x000000000002ab34      0x2fd build-pinetime-s132/py/nlrthumb.o
 .debug_abbrev  0x000000000002ae31      0x25b build-pinetime-s132/py/nlrpowerpc.o
 .debug_abbrev  0x000000000002b08c      0x25b build-pinetime-s132/py/nlrxtensa.o
 .debug_abbrev  0x000000000002b2e7      0x25b build-pinetime-s132/py/nlrsetjmp.o

.debug_loc      0x0000000000000000    0x70dae
 .debug_loc     0x0000000000000000    0x18b62 /tmp/firmware.elf.fkNs2M.ltrans0.ltrans.o
 .debug_loc     0x0000000000018b62     0xf158 /tmp/firmware.elf.fkNs2M.ltrans1.ltrans.o
 .debug_loc     0x0000000000027cba     0xf87b /tmp/firmware.elf.fkNs2M.ltrans2.ltrans.o
 .debug_loc     0x0000000000037535    0x13761 /tmp/firmware.elf.fkNs2M.ltrans3.ltrans.o
 .debug_loc     0x000000000004ac96    0x15e38 /tmp/firmware.elf.fkNs2M.ltrans4.ltrans.o
 .debug_loc     0x0000000000060ace    0x10267 /tmp/firmware.elf.fkNs2M.ltrans5.ltrans.o
 .debug_loc     0x0000000000070d35       0x79 build-pinetime-s132/py/nlrthumb.o

.debug_aranges  0x0000000000000000      0x158
 .debug_aranges
                0x0000000000000000       0x20 /tmp/firmware.elf.fkNs2M.ltrans0.ltrans.o
 .debug_aranges
                0x0000000000000020       0x20 /tmp/firmware.elf.fkNs2M.ltrans1.ltrans.o
 .debug_aranges
                0x0000000000000040       0x20 /tmp/firmware.elf.fkNs2M.ltrans2.ltrans.o
 .debug_aranges
                0x0000000000000060       0x20 /tmp/firmware.elf.fkNs2M.ltrans3.ltrans.o
 .debug_aranges
                0x0000000000000080       0x20 /tmp/firmware.elf.fkNs2M.ltrans4.ltrans.o
 .debug_aranges
                0x00000000000000a0       0x20 /tmp/firmware.elf.fkNs2M.ltrans5.ltrans.o
 .debug_aranges
                0x00000000000000c0       0x18 build-pinetime-s132/py/nlrx86.o
 .debug_aranges
                0x00000000000000d8       0x18 build-pinetime-s132/py/nlrx64.o
 .debug_aranges
                0x00000000000000f0       0x20 build-pinetime-s132/py/nlrthumb.o
 .debug_aranges
                0x0000000000000110       0x18 build-pinetime-s132/py/nlrpowerpc.o
 .debug_aranges
                0x0000000000000128       0x18 build-pinetime-s132/py/nlrxtensa.o
 .debug_aranges
                0x0000000000000140       0x18 build-pinetime-s132/py/nlrsetjmp.o

.debug_ranges   0x0000000000000000     0xead8
 .debug_ranges  0x0000000000000000     0x3498 /tmp/firmware.elf.fkNs2M.ltrans0.ltrans.o
 .debug_ranges  0x0000000000003498     0x2830 /tmp/firmware.elf.fkNs2M.ltrans1.ltrans.o
 .debug_ranges  0x0000000000005cc8     0x2520 /tmp/firmware.elf.fkNs2M.ltrans2.ltrans.o
 .debug_ranges  0x00000000000081e8     0x1f38 /tmp/firmware.elf.fkNs2M.ltrans3.ltrans.o
 .debug_ranges  0x000000000000a120     0x24c0 /tmp/firmware.elf.fkNs2M.ltrans4.ltrans.o
 .debug_ranges  0x000000000000c5e0     0x24e8 /tmp/firmware.elf.fkNs2M.ltrans5.ltrans.o
 .debug_ranges  0x000000000000eac8       0x10 build-pinetime-s132/py/nlrthumb.o

.debug_line     0x0000000000000000    0x5ab32
 .debug_line    0x0000000000000000     0xd5f6 /tmp/firmware.elf.fkNs2M.ltrans0.ltrans.o
 .debug_line    0x000000000000d5f6     0x952d /tmp/firmware.elf.fkNs2M.ltrans1.ltrans.o
 .debug_line    0x0000000000016b23     0x9012 /tmp/firmware.elf.fkNs2M.ltrans2.ltrans.o
 .debug_line    0x000000000001fb35     0x8cb6 /tmp/firmware.elf.fkNs2M.ltrans3.ltrans.o
 .debug_line    0x00000000000287eb     0xa1e2 /tmp/firmware.elf.fkNs2M.ltrans4.ltrans.o
 .debug_line    0x00000000000329cd     0x88e0 /tmp/firmware.elf.fkNs2M.ltrans5.ltrans.o
 .debug_line    0x000000000003b2ad      0x1dd /tmp/cc93ME0M.debug.temp.o
 .debug_line    0x000000000003b48a      0x1d9 /tmp/cce4P40N.debug.temp.o
 .debug_line    0x000000000003b663      0x1dc /tmp/ccUShPpQ.debug.temp.o
 .debug_line    0x000000000003b83f      0x1ed /tmp/cceFSu6P.debug.temp.o
 .debug_line    0x000000000003ba2c      0x1dd /tmp/ccdzT4VM.debug.temp.o
 .debug_line    0x000000000003bc09      0x1e7 /tmp/ccNViw3Q.debug.temp.o
 .debug_line    0x000000000003bdf0      0x201 /tmp/ccaeSOVO.debug.temp.o
 .debug_line    0x000000000003bff1      0x30f /tmp/ccKvZ7vP.debug.temp.o
 .debug_line    0x000000000003c300      0x16f /tmp/ccICjyfQ.debug.temp.o
 .debug_line    0x000000000003c46f      0x182 /tmp/ccn2vtnQ.debug.temp.o
 .debug_line    0x000000000003c5f1      0x1f5 /tmp/ccjVtRPQ.debug.temp.o
 .debug_line    0x000000000003c7e6      0x1ff /tmp/ccDq2BXN.debug.temp.o
 .debug_line    0x000000000003c9e5      0x24f /tmp/cciUpSSM.debug.temp.o
 .debug_line    0x000000000003cc34      0x20c /tmp/ccZn2DtO.debug.temp.o
 .debug_line    0x000000000003ce40      0x230 /tmp/ccmIpRtR.debug.temp.o
 .debug_line    0x000000000003d070      0x226 /tmp/ccP2KyrR.debug.temp.o
 .debug_line    0x000000000003d296      0x222 /tmp/ccv6jvYM.debug.temp.o
 .debug_line    0x000000000003d4b8      0x1aa /tmp/cceQx5jN.debug.temp.o
 .debug_line    0x000000000003d662       0xe9 /tmp/cc28lXzN.debug.temp.o
 .debug_line    0x000000000003d74b       0xe9 /tmp/ccZ3gIEQ.debug.temp.o
 .debug_line    0x000000000003d834       0xe9 /tmp/ccjCKAPP.debug.temp.o
 .debug_line    0x000000000003d91d      0x235 /tmp/cc4FifzO.debug.temp.o
 .debug_line    0x000000000003db52      0x2ee /tmp/ccnVoEHP.debug.temp.o
 .debug_line    0x000000000003de40      0x297 /tmp/ccx7QyUQ.debug.temp.o
 .debug_line    0x000000000003e0d7      0x216 /tmp/ccpng4nR.debug.temp.o
 .debug_line    0x000000000003e2ed       0xe9 /tmp/cc3Z3kZO.debug.temp.o
 .debug_line    0x000000000003e3d6       0xe9 /tmp/ccc6wqHO.debug.temp.o
 .debug_line    0x000000000003e4bf       0xe9 /tmp/ccOHxoqO.debug.temp.o
 .debug_line    0x000000000003e5a8       0xe9 /tmp/cc1LyLhP.debug.temp.o
 .debug_line    0x000000000003e691      0x216 /tmp/ccDU7MoN.debug.temp.o
 .debug_line    0x000000000003e8a7       0xe9 /tmp/cc0B9mKN.debug.temp.o
 .debug_line    0x000000000003e990      0x169 /tmp/ccuSjZDO.debug.temp.o
 .debug_line    0x000000000003eaf9      0x10e /tmp/cckn69GQ.debug.temp.o
 .debug_line    0x000000000003ec07      0x210 /tmp/ccxjmsBQ.debug.temp.o
 .debug_line    0x000000000003ee17      0x1f9 /tmp/ccDNtTuO.debug.temp.o
 .debug_line    0x000000000003f010      0x275 /tmp/ccv54H7M.debug.temp.o
 .debug_line    0x000000000003f285      0x25d /tmp/ccmUAT5N.debug.temp.o
 .debug_line    0x000000000003f4e2      0x1f0 /tmp/ccy8zpVP.debug.temp.o
 .debug_line    0x000000000003f6d2      0x1ec /tmp/ccHUzH7M.debug.temp.o
 .debug_line    0x000000000003f8be      0x253 /tmp/ccUada5O.debug.temp.o
 .debug_line    0x000000000003fb11       0xe8 /tmp/ccPnOOEQ.debug.temp.o
 .debug_line    0x000000000003fbf9      0x1ec /tmp/ccw9RqrO.debug.temp.o
 .debug_line    0x000000000003fde5      0x1eb /tmp/ccipaprO.debug.temp.o
 .debug_line    0x000000000003ffd0      0x216 /tmp/ccaKT8oO.debug.temp.o
 .debug_line    0x00000000000401e6      0x1dd /tmp/ccT4y8hN.debug.temp.o
 .debug_line    0x00000000000403c3      0x1e6 /tmp/ccqme5fQ.debug.temp.o
 .debug_line    0x00000000000405a9      0x221 /tmp/ccYYwCaO.debug.temp.o
 .debug_line    0x00000000000407ca      0x205 /tmp/ccQwFyWM.debug.temp.o
 .debug_line    0x00000000000409cf      0x1b0 /tmp/ccdyEzJQ.debug.temp.o
 .debug_line    0x0000000000040b7f      0x1ea /tmp/ccYcJ1uO.debug.temp.o
 .debug_line    0x0000000000040d69      0x1ef /tmp/ccwj3EXM.debug.temp.o
 .debug_line    0x0000000000040f58      0x19d /tmp/ccJaTFqR.debug.temp.o
 .debug_line    0x00000000000410f5      0x1ed /tmp/ccjWW6jP.debug.temp.o
 .debug_line    0x00000000000412e2      0x1fb /tmp/ccaW2ebN.debug.temp.o
 .debug_line    0x00000000000414dd       0xf5 /tmp/ccAVqDDN.debug.temp.o
 .debug_line    0x00000000000415d2      0x203 /tmp/ccwPhI8O.debug.temp.o
 .debug_line    0x00000000000417d5      0x1ef /tmp/cc1J15UO.debug.temp.o
 .debug_line    0x00000000000419c4      0x21f /tmp/cc1RzNSO.debug.temp.o
 .debug_line    0x0000000000041be3      0x1ec /tmp/cc0hh2tR.debug.temp.o
 .debug_line    0x0000000000041dcf      0x1f9 /tmp/cc4iH1VN.debug.temp.o
 .debug_line    0x0000000000041fc8      0x1fd /tmp/ccKPVk0P.debug.temp.o
 .debug_line    0x00000000000421c5      0x20f /tmp/cce9YhTM.debug.temp.o
 .debug_line    0x00000000000423d4      0x1f1 /tmp/cc3e7NcQ.debug.temp.o
 .debug_line    0x00000000000425c5      0x218 /tmp/ccCXvMcQ.debug.temp.o
 .debug_line    0x00000000000427dd      0x1f2 /tmp/cckMcd6N.debug.temp.o
 .debug_line    0x00000000000429cf      0x210 /tmp/ccIp6pbN.debug.temp.o
 .debug_line    0x0000000000042bdf      0x1ea /tmp/ccidzDqO.debug.temp.o
 .debug_line    0x0000000000042dc9      0x1e9 /tmp/cc6efsOO.debug.temp.o
 .debug_line    0x0000000000042fb2      0x233 /tmp/ccXQU4lO.debug.temp.o
 .debug_line    0x00000000000431e5      0x1ec /tmp/ccXif2FN.debug.temp.o
 .debug_line    0x00000000000433d1      0x1ee /tmp/ccS27wDP.debug.temp.o
 .debug_line    0x00000000000435bf      0x1ee /tmp/ccNpM16P.debug.temp.o
 .debug_line    0x00000000000437ad      0x19d /tmp/ccTAPjjN.debug.temp.o
 .debug_line    0x000000000004394a      0x20f /tmp/cc1vPN6M.debug.temp.o
 .debug_line    0x0000000000043b59      0x1eb /tmp/ccOCKUBO.debug.temp.o
 .debug_line    0x0000000000043d44      0x1ee /tmp/ccVOOObQ.debug.temp.o
 .debug_line    0x0000000000043f32      0x1f6 /tmp/ccRyGcYP.debug.temp.o
 .debug_line    0x0000000000044128      0x1a2 /tmp/ccAHAs0P.debug.temp.o
 .debug_line    0x00000000000442ca      0x19e /tmp/cczhehoQ.debug.temp.o
 .debug_line    0x0000000000044468      0x1f5 /tmp/ccug3Y4P.debug.temp.o
 .debug_line    0x000000000004465d      0x1e9 /tmp/ccD7AYUN.debug.temp.o
 .debug_line    0x0000000000044846      0x217 /tmp/ccVuAxUM.debug.temp.o
 .debug_line    0x0000000000044a5d      0x1eb /tmp/cc5QxV9Q.debug.temp.o
 .debug_line    0x0000000000044c48      0x1f7 /tmp/ccth2sNO.debug.temp.o
 .debug_line    0x0000000000044e3f      0x1e9 /tmp/ccoslknO.debug.temp.o
 .debug_line    0x0000000000045028      0x1ac /tmp/ccwx3yYQ.debug.temp.o
 .debug_line    0x00000000000451d4      0x1eb /tmp/ccMROwiQ.debug.temp.o
 .debug_line    0x00000000000453bf      0x20d /tmp/ccL5l9PP.debug.temp.o
 .debug_line    0x00000000000455cc      0x1fe /tmp/cccrSAVM.debug.temp.o
 .debug_line    0x00000000000457ca      0x258 /tmp/cc8xmSIO.debug.temp.o
 .debug_line    0x0000000000045a22      0x229 /tmp/cc7VHQ0N.debug.temp.o
 .debug_line    0x0000000000045c4b      0x1bd /tmp/cc16sUoR.debug.temp.o
 .debug_line    0x0000000000045e08      0x1ab /tmp/cctE6zkP.debug.temp.o
 .debug_line    0x0000000000045fb3      0x31e /tmp/cc1oHAkP.debug.temp.o
 .debug_line    0x00000000000462d1      0x1b1 /tmp/ccKnhw8P.debug.temp.o
 .debug_line    0x0000000000046482      0x1e3 /tmp/cc5X5dPP.debug.temp.o
 .debug_line    0x0000000000046665      0x201 /tmp/cczm1rvO.debug.temp.o
 .debug_line    0x0000000000046866      0x205 /tmp/ccW9YBSP.debug.temp.o
 .debug_line    0x0000000000046a6b      0x19d /tmp/cc6VMd1O.debug.temp.o
 .debug_line    0x0000000000046c08      0x2e6 /tmp/ccPWQ7vN.debug.temp.o
 .debug_line    0x0000000000046eee      0x1f9 /tmp/ccypQDAN.debug.temp.o
 .debug_line    0x00000000000470e7      0x237 /tmp/ccKxur6N.debug.temp.o
 .debug_line    0x000000000004731e      0x190 /tmp/ccPs46iR.debug.temp.o
 .debug_line    0x00000000000474ae      0x1dd /tmp/ccr7Z6RO.debug.temp.o
 .debug_line    0x000000000004768b      0x1f9 /tmp/cciyPruR.debug.temp.o
 .debug_line    0x0000000000047884      0x1f9 /tmp/ccwuuBFO.debug.temp.o
 .debug_line    0x0000000000047a7d      0x1dd /tmp/ccpNQIiN.debug.temp.o
 .debug_line    0x0000000000047c5a      0x1f4 /tmp/ccdHWoPP.debug.temp.o
 .debug_line    0x0000000000047e4e      0x10a /tmp/ccRdgplO.debug.temp.o
 .debug_line    0x0000000000047f58      0x220 /tmp/ccuY66MP.debug.temp.o
 .debug_line    0x0000000000048178      0x1dd /tmp/cc6kuLSP.debug.temp.o
 .debug_line    0x0000000000048355      0x215 /tmp/ccvR7UzQ.debug.temp.o
 .debug_line    0x000000000004856a      0x1e9 /tmp/ccPM3KyQ.debug.temp.o
 .debug_line    0x0000000000048753      0x1e9 /tmp/ccwgpoMQ.debug.temp.o
 .debug_line    0x000000000004893c      0x1dd /tmp/ccyU1gXP.debug.temp.o
 .debug_line    0x0000000000048b19      0x1dd /tmp/ccBDI6dN.debug.temp.o
 .debug_line    0x0000000000048cf6      0x1dd /tmp/ccj5fwyN.debug.temp.o
 .debug_line    0x0000000000048ed3       0xe9 /tmp/ccNESa8O.debug.temp.o
 .debug_line    0x0000000000048fbc      0x20e /tmp/cc7zVLZN.debug.temp.o
 .debug_line    0x00000000000491ca      0x1b7 /tmp/ccALQBuR.debug.temp.o
 .debug_line    0x0000000000049381      0x20c /tmp/ccfV09NP.debug.temp.o
 .debug_line    0x000000000004958d      0x221 /tmp/ccfPKSmP.debug.temp.o
 .debug_line    0x00000000000497ae      0x21f /tmp/ccNugVSN.debug.temp.o
 .debug_line    0x00000000000499cd      0x2e5 /tmp/ccpRD0ZN.debug.temp.o
 .debug_line    0x0000000000049cb2      0x322 /tmp/ccedRtwN.debug.temp.o
 .debug_line    0x0000000000049fd4      0x2fe /tmp/ccGwJxvQ.debug.temp.o
 .debug_line    0x000000000004a2d2      0x2d1 /tmp/ccXq4xgN.debug.temp.o
 .debug_line    0x000000000004a5a3      0x1e9 /tmp/ccAtTFNQ.debug.temp.o
 .debug_line    0x000000000004a78c       0xe9 /tmp/cc06OU7N.debug.temp.o
 .debug_line    0x000000000004a875      0x1dd /tmp/ccj5yFtR.debug.temp.o
 .debug_line    0x000000000004aa52       0xe9 /tmp/ccuhjPTM.debug.temp.o
 .debug_line    0x000000000004ab3b      0x1e9 /tmp/ccHFr8ZQ.debug.temp.o
 .debug_line    0x000000000004ad24      0x1f6 /tmp/cc3Ncc7O.debug.temp.o
 .debug_line    0x000000000004af1a      0x1dd /tmp/cc7x5gCQ.debug.temp.o
 .debug_line    0x000000000004b0f7      0x220 /tmp/ccResWAN.debug.temp.o
 .debug_line    0x000000000004b317      0x213 /tmp/cc4tSOhQ.debug.temp.o
 .debug_line    0x000000000004b52a      0x21b /tmp/ccpbqx8M.debug.temp.o
 .debug_line    0x000000000004b745      0x202 /tmp/cctldAmO.debug.temp.o
 .debug_line    0x000000000004b947      0x205 /tmp/ccf9RJ3O.debug.temp.o
 .debug_line    0x000000000004bb4c       0xe9 /tmp/ccdE9HHN.debug.temp.o
 .debug_line    0x000000000004bc35       0xe9 /tmp/ccI1LqtQ.debug.temp.o
 .debug_line    0x000000000004bd1e       0xe9 /tmp/ccA9E6eR.debug.temp.o
 .debug_line    0x000000000004be07      0x262 /tmp/ccgAmPGN.debug.temp.o
 .debug_line    0x000000000004c069      0x2f4 /tmp/ccB9OaoR.debug.temp.o
 .debug_line    0x000000000004c35d      0x224 /tmp/ccU4Hp4P.debug.temp.o
 .debug_line    0x000000000004c581      0x1f9 /tmp/ccvJdajQ.debug.temp.o
 .debug_line    0x000000000004c77a      0x2ae /tmp/cciArTWQ.debug.temp.o
 .debug_line    0x000000000004ca28      0x28c /tmp/ccgRgpqR.debug.temp.o
 .debug_line    0x000000000004ccb4      0x424 /tmp/ccz7dJaP.debug.temp.o
 .debug_line    0x000000000004d0d8      0x30f /tmp/ccbk495O.debug.temp.o
 .debug_line    0x000000000004d3e7      0x1a7 /tmp/cc8BBNUO.debug.temp.o
 .debug_line    0x000000000004d58e      0x1ae /tmp/ccAZ75iQ.debug.temp.o
 .debug_line    0x000000000004d73c      0x2d9 /tmp/ccxhUVaN.debug.temp.o
 .debug_line    0x000000000004da15      0x207 /tmp/ccnZejDN.debug.temp.o
 .debug_line    0x000000000004dc1c       0xe9 /tmp/cc0KeHOP.debug.temp.o
 .debug_line    0x000000000004dd05      0x278 /tmp/cctNpjhO.debug.temp.o
 .debug_line    0x000000000004df7d      0x278 /tmp/ccEcqO4N.debug.temp.o
 .debug_line    0x000000000004e1f5      0x2c0 /tmp/ccXvjJQM.debug.temp.o
 .debug_line    0x000000000004e4b5      0x36b /tmp/ccGyCV5N.debug.temp.o
 .debug_line    0x000000000004e820      0x31a /tmp/cc1a1k4M.debug.temp.o
 .debug_line    0x000000000004eb3a       0xe2 /tmp/ccOfj2WQ.debug.temp.o
 .debug_line    0x000000000004ec1c      0x3ec /tmp/ccfVgKtO.debug.temp.o
 .debug_line    0x000000000004f008      0x207 /tmp/ccmg64uR.debug.temp.o
 .debug_line    0x000000000004f20f      0x19e /tmp/ccuqU33O.debug.temp.o
 .debug_line    0x000000000004f3ad      0x1ac /tmp/ccawfiAQ.debug.temp.o
 .debug_line    0x000000000004f559      0x173 /tmp/ccR1dmiO.debug.temp.o
 .debug_line    0x000000000004f6cc      0x15f /tmp/cckAj23O.debug.temp.o
 .debug_line    0x000000000004f82b      0x2ed /tmp/cc1WLeyO.debug.temp.o
 .debug_line    0x000000000004fb18      0x347 /tmp/ccsbbpwP.debug.temp.o
 .debug_line    0x000000000004fe5f      0x245 /tmp/ccBBQ5XQ.debug.temp.o
 .debug_line    0x00000000000500a4      0x33c /tmp/ccgwoJjO.debug.temp.o
 .debug_line    0x00000000000503e0      0x245 /tmp/ccDN8JUN.debug.temp.o
 .debug_line    0x0000000000050625      0x344 /tmp/cc7bPZgN.debug.temp.o
 .debug_line    0x0000000000050969      0x344 /tmp/cc47GgZN.debug.temp.o
 .debug_line    0x0000000000050cad      0x245 /tmp/ccOjtzJQ.debug.temp.o
 .debug_line    0x0000000000050ef2      0x336 /tmp/ccGrETyP.debug.temp.o
 .debug_line    0x0000000000051228      0x33c /tmp/cc4Gt1kR.debug.temp.o
 .debug_line    0x0000000000051564      0x344 /tmp/ccGT1YiP.debug.temp.o
 .debug_line    0x00000000000518a8      0x34f /tmp/ccJFyL3N.debug.temp.o
 .debug_line    0x0000000000051bf7      0x2f1 /tmp/cckPmVlO.debug.temp.o
 .debug_line    0x0000000000051ee8      0x245 /tmp/ccJ19WxN.debug.temp.o
 .debug_line    0x000000000005212d      0x245 /tmp/ccNGoTFN.debug.temp.o
 .debug_line    0x0000000000052372      0x3e8 /tmp/cc0uzbvR.debug.temp.o
 .debug_line    0x000000000005275a      0x324 /tmp/ccMc2upR.debug.temp.o
 .debug_line    0x0000000000052a7e      0x3aa /tmp/ccT6OGsO.debug.temp.o
 .debug_line    0x0000000000052e28      0x361 /tmp/ccBRuSgN.debug.temp.o
 .debug_line    0x0000000000053189      0x33b /tmp/cc6JDLzO.debug.temp.o
 .debug_line    0x00000000000534c4      0x357 /tmp/ccymIGRQ.debug.temp.o
 .debug_line    0x000000000005381b      0x314 /tmp/ccCWJT1Q.debug.temp.o
 .debug_line    0x0000000000053b2f      0x338 /tmp/ccA2itiQ.debug.temp.o
 .debug_line    0x0000000000053e67      0x349 /tmp/ccUwCtsN.debug.temp.o
 .debug_line    0x00000000000541b0      0x307 /tmp/ccGSjh5Q.debug.temp.o
 .debug_line    0x00000000000544b7      0x349 /tmp/ccf8ZagQ.debug.temp.o
 .debug_line    0x0000000000054800      0x2d0 /tmp/ccqyczSN.debug.temp.o
 .debug_line    0x0000000000054ad0      0x1ed /tmp/cc74KfzN.debug.temp.o
 .debug_line    0x0000000000054cbd      0x304 /tmp/cciAUobN.debug.temp.o
 .debug_line    0x0000000000054fc1      0x2e5 /tmp/ccLPJUaR.debug.temp.o
 .debug_line    0x00000000000552a6      0x1c0 /tmp/cc1SsG0Q.debug.temp.o
 .debug_line    0x0000000000055466      0x240 /tmp/cciTjzbQ.debug.temp.o
 .debug_line    0x00000000000556a6      0x212 /tmp/cc9O5q5O.debug.temp.o
 .debug_line    0x00000000000558b8      0x219 /tmp/cc9h465N.debug.temp.o
 .debug_line    0x0000000000055ad1      0x21b /tmp/ccu7fsTM.debug.temp.o
 .debug_line    0x0000000000055cec      0x213 /tmp/ccqxcZtQ.debug.temp.o
 .debug_line    0x0000000000055eff      0x214 /tmp/ccrHBPMP.debug.temp.o
 .debug_line    0x0000000000056113      0x221 /tmp/cc12wz6Q.debug.temp.o
 .debug_line    0x0000000000056334      0x305 /tmp/ccyrgcuO.debug.temp.o
 .debug_line    0x0000000000056639      0x22f /tmp/ccf9BdLO.debug.temp.o
 .debug_line    0x0000000000056868      0x278 /tmp/ccLHJqVO.debug.temp.o
 .debug_line    0x0000000000056ae0      0x286 /tmp/ccdHbTLN.debug.temp.o
 .debug_line    0x0000000000056d66      0x24b /tmp/cc1JhZgP.debug.temp.o
 .debug_line    0x0000000000056fb1      0x2f6 /tmp/ccHlW1nN.debug.temp.o
 .debug_line    0x00000000000572a7      0x138 /tmp/cc0yaw1P.debug.temp.o
 .debug_line    0x00000000000573df      0x19d /tmp/ccqUU94N.debug.temp.o
 .debug_line    0x000000000005757c      0x19e /tmp/ccXkuJlN.debug.temp.o
 .debug_line    0x000000000005771a      0x1a3 /tmp/ccRnRq2M.debug.temp.o
 .debug_line    0x00000000000578bd      0x19f /tmp/ccKcOpSP.debug.temp.o
 .debug_line    0x0000000000057a5c      0x150 /tmp/ccb45OQO.debug.temp.o
 .debug_line    0x0000000000057bac      0x157 /tmp/ccbkj4XP.debug.temp.o
 .debug_line    0x0000000000057d03      0x157 /tmp/ccj2WLnR.debug.temp.o
 .debug_line    0x0000000000057e5a      0x158 /tmp/ccl2gPpO.debug.temp.o
 .debug_line    0x0000000000057fb2      0x15c /tmp/ccIYB5LN.debug.temp.o
 .debug_line    0x000000000005810e      0x19e /tmp/ccJ59ocR.debug.temp.o
 .debug_line    0x00000000000582ac      0x19e /tmp/cc8aQg6P.debug.temp.o
 .debug_line    0x000000000005844a      0x19e /tmp/cc54DH6Q.debug.temp.o
 .debug_line    0x00000000000585e8      0x1a0 /tmp/cckZ5btO.debug.temp.o
 .debug_line    0x0000000000058788      0x19f /tmp/ccoszf1O.debug.temp.o
 .debug_line    0x0000000000058927      0x13b /tmp/cco1VkpN.debug.temp.o
 .debug_line    0x0000000000058a62      0x1a3 /tmp/cciJxS9N.debug.temp.o
 .debug_line    0x0000000000058c05      0x19e /tmp/ccQki8gP.debug.temp.o
 .debug_line    0x0000000000058da3      0x19f /tmp/ccd3yHxO.debug.temp.o
 .debug_line    0x0000000000058f42      0x1a2 /tmp/ccs6EbKO.debug.temp.o
 .debug_line    0x00000000000590e4      0x2dc /tmp/cci7VVJQ.debug.temp.o
 .debug_line    0x00000000000593c0      0x31e /tmp/ccW1pTsQ.debug.temp.o
 .debug_line    0x00000000000596de      0x2a9 /tmp/cctJtCFO.debug.temp.o
 .debug_line    0x0000000000059987      0x1f4 /tmp/ccxpOjNQ.debug.temp.o
 .debug_line    0x0000000000059b7b      0x1c2 /tmp/ccQ7MHpO.debug.temp.o
 .debug_line    0x0000000000059d3d      0x2ad /tmp/ccw6P6bQ.debug.temp.o
 .debug_line    0x0000000000059fea      0x1d1 build-pinetime-s132/py/nlrx86.o
 .debug_line    0x000000000005a1bb      0x1d1 build-pinetime-s132/py/nlrx64.o
 .debug_line    0x000000000005a38c      0x233 build-pinetime-s132/py/nlrthumb.o
 .debug_line    0x000000000005a5bf      0x1d1 build-pinetime-s132/py/nlrpowerpc.o
 .debug_line    0x000000000005a790      0x1d1 build-pinetime-s132/py/nlrxtensa.o
 .debug_line    0x000000000005a961      0x1d1 build-pinetime-s132/py/nlrsetjmp.o

.debug_str      0x0000000000000000    0x37d98
 .debug_str     0x0000000000000000      0x347 /tmp/firmware.elf.fkNs2M.ltrans0.ltrans.o
                                        0x3ae (size before relaxing)
 .debug_str     0x0000000000000347       0x42 /tmp/firmware.elf.fkNs2M.ltrans1.ltrans.o
                                        0x27a (size before relaxing)
 .debug_str     0x0000000000000389      0x101 /tmp/firmware.elf.fkNs2M.ltrans2.ltrans.o
                                        0x372 (size before relaxing)
 .debug_str     0x000000000000048a      0x205 /tmp/firmware.elf.fkNs2M.ltrans3.ltrans.o
 .debug_str     0x000000000000048a       0x8a /tmp/firmware.elf.fkNs2M.ltrans4.ltrans.o
                                        0x304 (size before relaxing)
 .debug_str     0x0000000000000514       0x1a /tmp/firmware.elf.fkNs2M.ltrans5.ltrans.o
                                        0x212 (size before relaxing)
 .debug_str     0x000000000000052e      0x10f /tmp/cc93ME0M.debug.temp.o
                                       0x1b3b (size before relaxing)
 .debug_str     0x000000000000063d       0x25 /tmp/cce4P40N.debug.temp.o
                                       0x1b4d (size before relaxing)
 .debug_str     0x0000000000000662       0x87 /tmp/ccUShPpQ.debug.temp.o
                                       0x1bc0 (size before relaxing)
 .debug_str     0x00000000000006e9     0x3cbb /tmp/cceFSu6P.debug.temp.o
                                       0x575a (size before relaxing)
 .debug_str     0x00000000000043a4       0x13 /tmp/ccdzT4VM.debug.temp.o
                                       0x1b6c (size before relaxing)
 .debug_str     0x00000000000043b7      0x125 /tmp/ccNViw3Q.debug.temp.o
                                       0x55ca (size before relaxing)
 .debug_str     0x00000000000044dc      0x1bc /tmp/ccaeSOVO.debug.temp.o
                                       0x1d62 (size before relaxing)
 .debug_str     0x0000000000004698      0x557 /tmp/ccKvZ7vP.debug.temp.o
                                       0x216f (size before relaxing)
 .debug_str     0x0000000000004bef       0xb9 /tmp/ccICjyfQ.debug.temp.o
                                        0x727 (size before relaxing)
 .debug_str     0x0000000000004ca8      0x3ee /tmp/ccn2vtnQ.debug.temp.o
                                        0xb13 (size before relaxing)
 .debug_str     0x0000000000005096       0x7d /tmp/ccjVtRPQ.debug.temp.o
                                       0x1c01 (size before relaxing)
 .debug_str     0x0000000000005113      0xa84 /tmp/ccDq2BXN.debug.temp.o
                                       0x26a7 (size before relaxing)
 .debug_str     0x0000000000005b97     0x374a /tmp/cciUpSSM.debug.temp.o
                                       0x9623 (size before relaxing)
 .debug_str     0x00000000000092e1      0x29f /tmp/ccZn2DtO.debug.temp.o
                                       0x57ef (size before relaxing)
 .debug_str     0x0000000000009580     0x1d05 /tmp/ccmIpRtR.debug.temp.o
                                       0x803d (size before relaxing)
 .debug_str     0x000000000000b285       0x52 /tmp/ccP2KyrR.debug.temp.o
                                       0x2a9e (size before relaxing)
 .debug_str     0x000000000000b2d7      0x879 /tmp/ccv6jvYM.debug.temp.o
                                       0x6cc5 (size before relaxing)
 .debug_str     0x000000000000bb50       0xcf /tmp/cceQx5jN.debug.temp.o
                                       0x17ba (size before relaxing)
 .debug_str     0x000000000000bc1f       0x12 /tmp/cc28lXzN.debug.temp.o
                                        0x63c (size before relaxing)
 .debug_str     0x000000000000bc31       0x14 /tmp/ccZ3gIEQ.debug.temp.o
                                        0x63e (size before relaxing)
 .debug_str     0x000000000000bc45       0x12 /tmp/ccjCKAPP.debug.temp.o
                                        0x63c (size before relaxing)
 .debug_str     0x000000000000bc57      0x1c4 /tmp/cc4FifzO.debug.temp.o
                                       0x2296 (size before relaxing)
 .debug_str     0x000000000000be1b      0x356 /tmp/ccnVoEHP.debug.temp.o
                                       0x2362 (size before relaxing)
 .debug_str     0x000000000000c171     0x15b3 /tmp/ccx7QyUQ.debug.temp.o
                                       0x84b7 (size before relaxing)
 .debug_str     0x000000000000d724       0x1b /tmp/ccpng4nR.debug.temp.o
                                       0x29c2 (size before relaxing)
 .debug_str     0x000000000000d73f       0x12 /tmp/cc3Z3kZO.debug.temp.o
                                        0x63c (size before relaxing)
 .debug_str     0x000000000000d751       0x14 /tmp/ccc6wqHO.debug.temp.o
                                        0x63e (size before relaxing)
 .debug_str     0x000000000000d765       0x15 /tmp/ccOHxoqO.debug.temp.o
                                        0x63f (size before relaxing)
 .debug_str     0x000000000000d77a       0x17 /tmp/cc1LyLhP.debug.temp.o
                                        0x641 (size before relaxing)
 .debug_str     0x000000000000d791       0x1c /tmp/ccDU7MoN.debug.temp.o
                                       0x29c3 (size before relaxing)
 .debug_str     0x000000000000d7ad       0x1a /tmp/cc0B9mKN.debug.temp.o
                                        0x644 (size before relaxing)
 .debug_str     0x000000000000d7c7       0x98 /tmp/ccuSjZDO.debug.temp.o
                                        0x72b (size before relaxing)
 .debug_str     0x000000000000d85f       0x34 /tmp/cckn69GQ.debug.temp.o
                                        0x69c (size before relaxing)
 .debug_str     0x000000000000d893      0x103 /tmp/ccxjmsBQ.debug.temp.o
                                       0x5e18 (size before relaxing)
 .debug_str     0x000000000000d996       0xcf /tmp/ccDNtTuO.debug.temp.o
                                       0x1d06 (size before relaxing)
 .debug_str     0x000000000000da65      0x300 /tmp/ccv54H7M.debug.temp.o
                                       0x28d8 (size before relaxing)
 .debug_str     0x000000000000dd65      0x689 /tmp/ccmUAT5N.debug.temp.o
                                       0x6f17 (size before relaxing)
 .debug_str     0x000000000000e3ee       0x53 /tmp/ccy8zpVP.debug.temp.o
                                       0x1bb6 (size before relaxing)
 .debug_str     0x000000000000e441       0xb2 /tmp/ccHUzH7M.debug.temp.o
                                       0x1c19 (size before relaxing)
 .debug_str     0x000000000000e4f3      0x15e /tmp/ccUada5O.debug.temp.o
                                       0x5dbf (size before relaxing)
 .debug_str     0x000000000000e651       0x63 /tmp/ccPnOOEQ.debug.temp.o
                                        0x271 (size before relaxing)
 .debug_str     0x000000000000e6b4       0x76 /tmp/ccw9RqrO.debug.temp.o
                                       0x1bd5 (size before relaxing)
 .debug_str     0x000000000000e72a      0x183 /tmp/ccipaprO.debug.temp.o
                                       0x1dca (size before relaxing)
 .debug_str     0x000000000000e8ad       0x13 /tmp/ccaKT8oO.debug.temp.o
                                       0x29ba (size before relaxing)
 .debug_str     0x000000000000e8c0       0x13 /tmp/ccT4y8hN.debug.temp.o
                                       0x1b6c (size before relaxing)
 .debug_str     0x000000000000e8d3      0x15d /tmp/ccqme5fQ.debug.temp.o
                                       0x1db2 (size before relaxing)
 .debug_str     0x000000000000ea30      0x1e8 /tmp/ccYYwCaO.debug.temp.o
                                       0x5a83 (size before relaxing)
 .debug_str     0x000000000000ec18      0x295 /tmp/ccQwFyWM.debug.temp.o
                                       0x5a55 (size before relaxing)
 .debug_str     0x000000000000eead       0x78 /tmp/ccdyEzJQ.debug.temp.o
                                       0x503a (size before relaxing)
 .debug_str     0x000000000000ef25       0x49 /tmp/ccYcJ1uO.debug.temp.o
                                       0x5566 (size before relaxing)
 .debug_str     0x000000000000ef6e       0xa2 /tmp/ccwj3EXM.debug.temp.o
                                       0x5561 (size before relaxing)
 .debug_str     0x000000000000f010       0x5f /tmp/ccJaTFqR.debug.temp.o
                                       0x4ff2 (size before relaxing)
 .debug_str     0x000000000000f06f       0x5e /tmp/ccjWW6jP.debug.temp.o
                                       0x552d (size before relaxing)
 .debug_str     0x000000000000f0cd      0x103 /tmp/ccaW2ebN.debug.temp.o
                                       0x5690 (size before relaxing)
 .debug_str     0x000000000000f1d0       0x14 /tmp/ccAVqDDN.debug.temp.o
                                        0x66b (size before relaxing)
 .debug_str     0x000000000000f1e4      0x3d3 /tmp/ccwPhI8O.debug.temp.o
                                       0x62f8 (size before relaxing)
 .debug_str     0x000000000000f5b7       0x5b /tmp/cc1J15UO.debug.temp.o
                                       0x55ef (size before relaxing)
 .debug_str     0x000000000000f612      0x283 /tmp/cc1RzNSO.debug.temp.o
                                       0x5a32 (size before relaxing)
 .debug_str     0x000000000000f895       0x46 /tmp/cc0hh2tR.debug.temp.o
                                       0x553f (size before relaxing)
 .debug_str     0x000000000000f8db       0xa8 /tmp/cc4iH1VN.debug.temp.o
                                       0x5641 (size before relaxing)
 .debug_str     0x000000000000f983      0x151 /tmp/ccKPVk0P.debug.temp.o
                                       0x5834 (size before relaxing)
 .debug_str     0x000000000000fad4      0x1bc /tmp/cce9YhTM.debug.temp.o
                                       0x5a7e (size before relaxing)
 .debug_str     0x000000000000fc90       0x49 /tmp/cc3e7NcQ.debug.temp.o
                                       0x550b (size before relaxing)
 .debug_str     0x000000000000fcd9      0x1c4 /tmp/ccCXvMcQ.debug.temp.o
                                       0x5a67 (size before relaxing)
 .debug_str     0x000000000000fe9d       0x1b /tmp/cckMcd6N.debug.temp.o
                                       0x1bc6 (size before relaxing)
 .debug_str     0x000000000000feb8      0x1c3 /tmp/ccIp6pbN.debug.temp.o
                                       0x1e40 (size before relaxing)
 .debug_str     0x000000000001007b      0x2d1 /tmp/ccidzDqO.debug.temp.o
                                       0x59af (size before relaxing)
 .debug_str     0x000000000001034c       0x4a /tmp/cc6efsOO.debug.temp.o
                                       0x5541 (size before relaxing)
 .debug_str     0x0000000000010396       0xe4 /tmp/ccXQU4lO.debug.temp.o
                                       0x5d4c (size before relaxing)
 .debug_str     0x000000000001047a       0xbf /tmp/ccXif2FN.debug.temp.o
                                       0x5644 (size before relaxing)
 .debug_str     0x0000000000010539       0x46 /tmp/ccS27wDP.debug.temp.o
                                       0x54ed (size before relaxing)
 .debug_str     0x000000000001057f      0x117 /tmp/ccNpM16P.debug.temp.o
                                       0x56d1 (size before relaxing)
 .debug_str     0x0000000000010696       0x1e /tmp/ccTAPjjN.debug.temp.o
                                       0x4fa3 (size before relaxing)
 .debug_str     0x00000000000106b4       0xf6 /tmp/cc1vPN6M.debug.temp.o
                                       0x1f22 (size before relaxing)
 .debug_str     0x00000000000107aa       0xcb /tmp/ccOCKUBO.debug.temp.o
                                       0x564d (size before relaxing)
 .debug_str     0x0000000000010875       0x58 /tmp/ccVOOObQ.debug.temp.o
                                       0x554e (size before relaxing)
 .debug_str     0x00000000000108cd      0x3aa /tmp/ccRyGcYP.debug.temp.o
                                       0x60f1 (size before relaxing)
 .debug_str     0x0000000000010c77       0x3a /tmp/ccAHAs0P.debug.temp.o
                                       0x4fd7 (size before relaxing)
 .debug_str     0x0000000000010cb1       0x65 /tmp/cczhehoQ.debug.temp.o
                                       0x5013 (size before relaxing)
 .debug_str     0x0000000000010d16      0x713 /tmp/ccug3Y4P.debug.temp.o
                                       0x60bc (size before relaxing)
 .debug_str     0x0000000000011429       0x19 /tmp/ccD7AYUN.debug.temp.o
                                       0x1d89 (size before relaxing)
 .debug_str     0x0000000000011442      0x19f /tmp/ccVuAxUM.debug.temp.o
                                       0x5a85 (size before relaxing)
 .debug_str     0x00000000000115e1      0x176 /tmp/cc5QxV9Q.debug.temp.o
                                       0x578d (size before relaxing)
 .debug_str     0x0000000000011757      0x3c2 /tmp/ccth2sNO.debug.temp.o
                                       0x5b2e (size before relaxing)
 .debug_str     0x0000000000011b19       0x3a /tmp/ccoslknO.debug.temp.o
                                       0x553f (size before relaxing)
 .debug_str     0x0000000000011b53       0x52 /tmp/ccwx3yYQ.debug.temp.o
                                       0x1d59 (size before relaxing)
 .debug_str     0x0000000000011ba5       0xd4 /tmp/ccMROwiQ.debug.temp.o
                                       0x1c89 (size before relaxing)
 .debug_str     0x0000000000011c79      0x1ab /tmp/ccL5l9PP.debug.temp.o
                                       0x215f (size before relaxing)
 .debug_str     0x0000000000011e24      0x106 /tmp/cccrSAVM.debug.temp.o
                                       0x1d3d (size before relaxing)
 .debug_str     0x0000000000011f2a      0x24f /tmp/cc8xmSIO.debug.temp.o
                                       0x683b (size before relaxing)
 .debug_str     0x0000000000012179       0x84 /tmp/cc7VHQ0N.debug.temp.o
                                       0x657d (size before relaxing)
 .debug_str     0x00000000000121fd       0xe8 /tmp/cc16sUoR.debug.temp.o
                                       0x578c (size before relaxing)
 .debug_str     0x00000000000122e5       0x4a /tmp/cctE6zkP.debug.temp.o
                                       0x56a5 (size before relaxing)
 .debug_str     0x000000000001232f      0x328 /tmp/cc1oHAkP.debug.temp.o
                                       0x67a8 (size before relaxing)
 .debug_str     0x0000000000012657       0x5c /tmp/ccKnhw8P.debug.temp.o
                                       0x56b7 (size before relaxing)
 .debug_str     0x00000000000126b3      0x106 /tmp/cc5X5dPP.debug.temp.o
                                       0x567a (size before relaxing)
 .debug_str     0x00000000000127b9       0x71 /tmp/cczm1rvO.debug.temp.o
                                       0x5ce4 (size before relaxing)
 .debug_str     0x000000000001282a      0x3c8 /tmp/ccW9YBSP.debug.temp.o
                                       0x5f68 (size before relaxing)
 .debug_str     0x0000000000012bf2       0x14 /tmp/cc6VMd1O.debug.temp.o
                                       0x1d05 (size before relaxing)
 .debug_str     0x0000000000012c06      0x23a /tmp/ccPWQ7vN.debug.temp.o
                                       0x617e (size before relaxing)
 .debug_str     0x0000000000012e40      0x152 /tmp/ccypQDAN.debug.temp.o
                                       0x5d10 (size before relaxing)
 .debug_str     0x0000000000012f92      0x146 /tmp/ccKxur6N.debug.temp.o
                                       0x60ff (size before relaxing)
 .debug_str     0x00000000000130d8       0x15 /tmp/ccPs46iR.debug.temp.o
                                       0x1664 (size before relaxing)
 .debug_str     0x00000000000130ed       0x15 /tmp/ccr7Z6RO.debug.temp.o
                                       0x1b6e (size before relaxing)
 .debug_str     0x0000000000013102      0x134 /tmp/cciyPruR.debug.temp.o
                                       0x580c (size before relaxing)
 .debug_str     0x0000000000013236       0xca /tmp/ccwuuBFO.debug.temp.o
                                       0x1dd5 (size before relaxing)
 .debug_str     0x0000000000013300       0x12 /tmp/ccpNQIiN.debug.temp.o
                                       0x1b6b (size before relaxing)
 .debug_str     0x0000000000013312       0xdb /tmp/ccdHWoPP.debug.temp.o
                                       0x5c30 (size before relaxing)
 .debug_str     0x00000000000133ed       0x73 /tmp/ccRdgplO.debug.temp.o
                                        0x6c6 (size before relaxing)
 .debug_str     0x0000000000013460       0xca /tmp/ccuY66MP.debug.temp.o
                                       0x25c8 (size before relaxing)
 .debug_str     0x000000000001352a       0x1a /tmp/cc6kuLSP.debug.temp.o
                                       0x1b73 (size before relaxing)
 .debug_str     0x0000000000013544      0x126 /tmp/ccvR7UzQ.debug.temp.o
                                       0x586e (size before relaxing)
 .debug_str     0x000000000001366a       0x16 /tmp/ccPM3KyQ.debug.temp.o
                                       0x1d86 (size before relaxing)
 .debug_str     0x0000000000013680       0x18 /tmp/ccwgpoMQ.debug.temp.o
                                       0x1cdf (size before relaxing)
 .debug_str     0x0000000000013698       0x19 /tmp/ccyU1gXP.debug.temp.o
                                       0x1b72 (size before relaxing)
 .debug_str     0x00000000000136b1       0x19 /tmp/ccBDI6dN.debug.temp.o
                                       0x1b72 (size before relaxing)
 .debug_str     0x00000000000136ca       0x1b /tmp/ccj5fwyN.debug.temp.o
                                       0x1b74 (size before relaxing)
 .debug_str     0x00000000000136e5       0x1d /tmp/ccNESa8O.debug.temp.o
                                        0x647 (size before relaxing)
 .debug_str     0x0000000000013702      0x12e /tmp/cc7zVLZN.debug.temp.o
                                       0x1d2c (size before relaxing)
 .debug_str     0x0000000000013830       0x4c /tmp/ccALQBuR.debug.temp.o
                                       0x16c8 (size before relaxing)
 .debug_str     0x000000000001387c       0xbf /tmp/ccfV09NP.debug.temp.o
                                       0x55a5 (size before relaxing)
 .debug_str     0x000000000001393b       0x81 /tmp/ccfPKSmP.debug.temp.o
                                       0x5564 (size before relaxing)
 .debug_str     0x00000000000139bc       0xf6 /tmp/ccNugVSN.debug.temp.o
                                       0x56c3 (size before relaxing)
 .debug_str     0x0000000000013ab2       0x37 /tmp/ccpRD0ZN.debug.temp.o
                                       0x1f92 (size before relaxing)
 .debug_str     0x0000000000013ae9      0x8eb /tmp/ccedRtwN.debug.temp.o
                                       0x63ae (size before relaxing)
 .debug_str     0x00000000000143d4      0x10a /tmp/ccGwJxvQ.debug.temp.o
                                       0x20a2 (size before relaxing)
 .debug_str     0x00000000000144de       0x1c /tmp/ccXq4xgN.debug.temp.o
                                       0x212e (size before relaxing)
 .debug_str     0x00000000000144fa       0x1d /tmp/ccAtTFNQ.debug.temp.o
                                       0x1ce4 (size before relaxing)
 .debug_str     0x0000000000014517       0x1f /tmp/cc06OU7N.debug.temp.o
                                        0x649 (size before relaxing)
 .debug_str     0x0000000000014536       0x1a /tmp/ccj5yFtR.debug.temp.o
                                       0x1b73 (size before relaxing)
 .debug_str     0x0000000000014550       0x1a /tmp/ccuhjPTM.debug.temp.o
                                        0x644 (size before relaxing)
 .debug_str     0x000000000001456a       0x1d /tmp/ccHFr8ZQ.debug.temp.o
                                       0x1ce4 (size before relaxing)
 .debug_str     0x0000000000014587       0x1a /tmp/cc3Ncc7O.debug.temp.o
                                       0x2323 (size before relaxing)
 .debug_str     0x00000000000145a1       0x1b /tmp/cc7x5gCQ.debug.temp.o
                                       0x1b74 (size before relaxing)
 .debug_str     0x00000000000145bc      0x354 /tmp/ccResWAN.debug.temp.o
                                       0x5c7c (size before relaxing)
 .debug_str     0x0000000000014910       0xc4 /tmp/cc4tSOhQ.debug.temp.o
                                       0x572d (size before relaxing)
 .debug_str     0x00000000000149d4       0x69 /tmp/ccpbqx8M.debug.temp.o
                                       0x1e70 (size before relaxing)
 .debug_str     0x0000000000014a3d       0x5d /tmp/cctldAmO.debug.temp.o
                                       0x1d01 (size before relaxing)
 .debug_str     0x0000000000014a9a       0x1e /tmp/ccf9RJ3O.debug.temp.o
                                       0x1d29 (size before relaxing)
 .debug_str     0x0000000000014ab8       0x17 /tmp/ccdE9HHN.debug.temp.o
                                        0x641 (size before relaxing)
 .debug_str     0x0000000000014acf       0x1e /tmp/ccI1LqtQ.debug.temp.o
                                        0x648 (size before relaxing)
 .debug_str     0x0000000000014aed       0x1c /tmp/ccA9E6eR.debug.temp.o
                                        0x646 (size before relaxing)
 .debug_str     0x0000000000014b09      0xadb /tmp/ccgAmPGN.debug.temp.o
                                       0x662c (size before relaxing)
 .debug_str     0x00000000000155e4      0x177 /tmp/ccB9OaoR.debug.temp.o
                                       0x20e9 (size before relaxing)
 .debug_str     0x000000000001575b       0x40 /tmp/ccU4Hp4P.debug.temp.o
                                       0x1d07 (size before relaxing)
 .debug_str     0x000000000001579b       0x20 /tmp/ccvJdajQ.debug.temp.o
                                       0x1b79 (size before relaxing)
 .debug_str     0x00000000000157bb       0x61 /tmp/cciArTWQ.debug.temp.o
                                       0x1b1f (size before relaxing)
 .debug_str     0x000000000001581c    0x10f2d /tmp/ccgRgpqR.debug.temp.o
                                      0x16e0e (size before relaxing)
 .debug_str     0x0000000000026749      0x44f /tmp/ccz7dJaP.debug.temp.o
                                       0x6647 (size before relaxing)
 .debug_str     0x0000000000026b98       0x86 /tmp/ccbk495O.debug.temp.o
                                       0x2206 (size before relaxing)
 .debug_str     0x0000000000026c1e       0x86 /tmp/cc8BBNUO.debug.temp.o
                                       0x1cf8 (size before relaxing)
 .debug_str     0x0000000000026c1e       0x13 /tmp/ccAZ75iQ.debug.temp.o
                                       0x16f9 (size before relaxing)
 .debug_str     0x0000000000026c31       0x9a /tmp/ccxhUVaN.debug.temp.o
                                       0x59dc (size before relaxing)
 .debug_str     0x0000000000026ccb       0x1f /tmp/ccnZejDN.debug.temp.o
                                       0x1b8c (size before relaxing)
 .debug_str     0x0000000000026cea       0x10 /tmp/cc0KeHOP.debug.temp.o
                                        0x63a (size before relaxing)
 .debug_str     0x0000000000026cfa       0x12 /tmp/cctNpjhO.debug.temp.o
                                       0x1a75 (size before relaxing)
 .debug_str     0x0000000000026d0c       0x11 /tmp/ccEcqO4N.debug.temp.o
                                       0x1a74 (size before relaxing)
 .debug_str     0x0000000000026d1d      0x2a0 /tmp/ccXvjJQM.debug.temp.o
                                       0x201d (size before relaxing)
 .debug_str     0x0000000000026fbd     0x3823 /tmp/ccGyCV5N.debug.temp.o
                                       0x5bce (size before relaxing)
 .debug_str     0x000000000002a7e0      0x210 /tmp/cc1a1k4M.debug.temp.o
                                       0x2579 (size before relaxing)
 .debug_str     0x000000000002a9f0       0x58 /tmp/ccOfj2WQ.debug.temp.o
                                        0x256 (size before relaxing)
 .debug_str     0x000000000002aa48      0x898 /tmp/ccfVgKtO.debug.temp.o
                                       0x6a95 (size before relaxing)
 .debug_str     0x000000000002b2e0      0x548 /tmp/ccmg64uR.debug.temp.o
                                        0xdb2 (size before relaxing)
 .debug_str     0x000000000002b828     0x111f /tmp/ccuqU33O.debug.temp.o
                                       0x1bb0 (size before relaxing)
 .debug_str     0x000000000002c947      0x349 /tmp/ccawfiAQ.debug.temp.o
                                        0xdb2 (size before relaxing)
 .debug_str     0x000000000002cc90      0x9e1 /tmp/ccR1dmiO.debug.temp.o
                                       0x16c7 (size before relaxing)
 .debug_str     0x000000000002d671       0x2f /tmp/cckAj23O.debug.temp.o
                                        0x60e (size before relaxing)
 .debug_str     0x000000000002d6a0      0x418 /tmp/cc1WLeyO.debug.temp.o
                                       0x21bf (size before relaxing)
 .debug_str     0x000000000002dab8      0xa6c /tmp/ccsbbpwP.debug.temp.o
                                       0x2d55 (size before relaxing)
 .debug_str     0x000000000002e524       0x26 /tmp/ccBBQ5XQ.debug.temp.o
                                       0x17ad (size before relaxing)
 .debug_str     0x000000000002e54a     0x104f /tmp/ccgwoJjO.debug.temp.o
                                       0x31c5 (size before relaxing)
 .debug_str     0x000000000002f599       0x26 /tmp/ccDN8JUN.debug.temp.o
                                       0x17ad (size before relaxing)
 .debug_str     0x000000000002f5bf      0x82c /tmp/cc7bPZgN.debug.temp.o
                                       0x2c5c (size before relaxing)
 .debug_str     0x000000000002fdeb      0x490 /tmp/cc47GgZN.debug.temp.o
                                       0x2911 (size before relaxing)
 .debug_str     0x000000000003027b       0x27 /tmp/ccOjtzJQ.debug.temp.o
                                       0x17ae (size before relaxing)
 .debug_str     0x00000000000302a2      0x58c /tmp/ccGrETyP.debug.temp.o
                                       0x2689 (size before relaxing)
 .debug_str     0x000000000003082e      0xb20 /tmp/cc4Gt1kR.debug.temp.o
                                       0x2c80 (size before relaxing)
 .debug_str     0x000000000003134e      0xacb /tmp/ccGT1YiP.debug.temp.o
                                       0x2ee0 (size before relaxing)
 .debug_str     0x0000000000031e19      0xc9d /tmp/ccJFyL3N.debug.temp.o
                                       0x309d (size before relaxing)
 .debug_str     0x0000000000032ab6      0x49c /tmp/cckPmVlO.debug.temp.o
                                       0x1e7e (size before relaxing)
 .debug_str     0x0000000000032f52       0x28 /tmp/ccJ19WxN.debug.temp.o
                                       0x17af (size before relaxing)
 .debug_str     0x0000000000032f7a       0x28 /tmp/ccNGoTFN.debug.temp.o
                                       0x17af (size before relaxing)
 .debug_str     0x0000000000032fa2      0x2f9 /tmp/cc0uzbvR.debug.temp.o
                                       0x6032 (size before relaxing)
 .debug_str     0x000000000003329b       0x17 /tmp/ccMc2upR.debug.temp.o
                                       0x219c (size before relaxing)
 .debug_str     0x00000000000332b2      0x2ca /tmp/ccT6OGsO.debug.temp.o
                                       0x634e (size before relaxing)
 .debug_str     0x000000000003357c       0xc5 /tmp/ccBRuSgN.debug.temp.o
                                       0x5e6d (size before relaxing)
 .debug_str     0x0000000000033641      0x1d3 /tmp/cc6JDLzO.debug.temp.o
                                       0x628d (size before relaxing)
 .debug_str     0x0000000000033814      0x352 /tmp/ccymIGRQ.debug.temp.o
                                       0x63db (size before relaxing)
 .debug_str     0x0000000000033b66      0x1e2 /tmp/ccCWJT1Q.debug.temp.o
                                       0x5fbd (size before relaxing)
 .debug_str     0x0000000000033d48      0x403 /tmp/ccA2itiQ.debug.temp.o
                                       0x6111 (size before relaxing)
 .debug_str     0x000000000003414b      0x267 /tmp/ccUwCtsN.debug.temp.o
                                       0x6233 (size before relaxing)
 .debug_str     0x00000000000343b2       0xf5 /tmp/ccGSjh5Q.debug.temp.o
                                       0x5e5d (size before relaxing)
 .debug_str     0x00000000000344a7      0x165 /tmp/ccf8ZagQ.debug.temp.o
                                       0x5ec0 (size before relaxing)
 .debug_str     0x000000000003460c       0x19 /tmp/ccqyczSN.debug.temp.o
                                       0x1f40 (size before relaxing)
 .debug_str     0x0000000000034625       0xbb /tmp/cc74KfzN.debug.temp.o
                                       0x5197 (size before relaxing)
 .debug_str     0x00000000000346e0       0x49 /tmp/cciAUobN.debug.temp.o
                                       0x5fd1 (size before relaxing)
 .debug_str     0x0000000000034729       0x6a /tmp/ccLPJUaR.debug.temp.o
                                       0x1fda (size before relaxing)
 .debug_str     0x0000000000034793       0xcd /tmp/cc1SsG0Q.debug.temp.o
                                       0x5155 (size before relaxing)
 .debug_str     0x0000000000034860      0x3eb /tmp/cciTjzbQ.debug.temp.o
                                       0x605e (size before relaxing)
 .debug_str     0x0000000000034c4b      0x189 /tmp/cc9O5q5O.debug.temp.o
                                       0x5a7e (size before relaxing)
 .debug_str     0x0000000000034dd4      0x183 /tmp/cc9h465N.debug.temp.o
                                       0x5b8a (size before relaxing)
 .debug_str     0x0000000000034f57       0xac /tmp/ccu7fsTM.debug.temp.o
                                       0x59f9 (size before relaxing)
 .debug_str     0x0000000000035003      0x11a /tmp/ccqxcZtQ.debug.temp.o
                                       0x56f0 (size before relaxing)
 .debug_str     0x000000000003511d       0xba /tmp/ccrHBPMP.debug.temp.o
                                       0x5675 (size before relaxing)
 .debug_str     0x00000000000351d7       0xd0 /tmp/cc12wz6Q.debug.temp.o
                                       0x59f0 (size before relaxing)
 .debug_str     0x00000000000352a7       0xfd /tmp/ccyrgcuO.debug.temp.o
                                       0x5cf3 (size before relaxing)
 .debug_str     0x00000000000353a4      0x1e4 /tmp/ccf9BdLO.debug.temp.o
                                       0x5a5a (size before relaxing)
 .debug_str     0x0000000000035588       0x19 /tmp/ccLHJqVO.debug.temp.o
                                       0x1a7c (size before relaxing)
 .debug_str     0x00000000000355a1       0x1b /tmp/ccdHbTLN.debug.temp.o
                                       0x1a96 (size before relaxing)
 .debug_str     0x00000000000355bc       0xd7 /tmp/cc1JhZgP.debug.temp.o
                                       0x56df (size before relaxing)
 .debug_str     0x0000000000035693      0x2ae /tmp/ccHlW1nN.debug.temp.o
                                       0x5db0 (size before relaxing)
 .debug_str     0x0000000000035941      0x132 /tmp/cc0yaw1P.debug.temp.o
                                        0x77d (size before relaxing)
 .debug_str     0x0000000000035a73      0x13a /tmp/ccqUU94N.debug.temp.o
                                        0x720 (size before relaxing)
 .debug_str     0x0000000000035bad       0x1d /tmp/ccXkuJlN.debug.temp.o
                                        0x5df (size before relaxing)
 .debug_str     0x0000000000035bca       0x27 /tmp/ccRnRq2M.debug.temp.o
                                        0x5f1 (size before relaxing)
 .debug_str     0x0000000000035bf1       0x3f /tmp/ccKcOpSP.debug.temp.o
                                        0x612 (size before relaxing)
 .debug_str     0x0000000000035c30       0x58 /tmp/ccb45OQO.debug.temp.o
                                        0x620 (size before relaxing)
 .debug_str     0x0000000000035c88       0x26 /tmp/ccbkj4XP.debug.temp.o
                                        0x614 (size before relaxing)
 .debug_str     0x0000000000035cae       0x26 /tmp/ccj2WLnR.debug.temp.o
                                        0x614 (size before relaxing)
 .debug_str     0x0000000000035cd4       0x32 /tmp/ccl2gPpO.debug.temp.o
                                        0x5fe (size before relaxing)
 .debug_str     0x0000000000035d06       0x7b /tmp/ccIYB5LN.debug.temp.o
                                        0x67d (size before relaxing)
 .debug_str     0x0000000000035d81       0x18 /tmp/ccJ59ocR.debug.temp.o
                                        0x606 (size before relaxing)
 .debug_str     0x0000000000035d99       0x18 /tmp/cc8aQg6P.debug.temp.o
                                        0x606 (size before relaxing)
 .debug_str     0x0000000000035db1       0x18 /tmp/cc54DH6Q.debug.temp.o
                                        0x606 (size before relaxing)
 .debug_str     0x0000000000035dc9       0x2c /tmp/cckZ5btO.debug.temp.o
                                        0x61a (size before relaxing)
 .debug_str     0x0000000000035df5       0x24 /tmp/ccoszf1O.debug.temp.o
                                        0x612 (size before relaxing)
 .debug_str     0x0000000000035e19       0x21 /tmp/cco1VkpN.debug.temp.o
                                        0x5d5 (size before relaxing)
 .debug_str     0x0000000000035e3a       0x38 /tmp/cciJxS9N.debug.temp.o
                                        0x602 (size before relaxing)
 .debug_str     0x0000000000035e72       0x2b /tmp/ccQki8gP.debug.temp.o
                                        0x5fa (size before relaxing)
 .debug_str     0x0000000000035e9d       0x25 /tmp/ccd3yHxO.debug.temp.o
                                        0x5e7 (size before relaxing)
 .debug_str     0x0000000000035ec2       0x99 /tmp/ccs6EbKO.debug.temp.o
                                        0x6b4 (size before relaxing)
 .debug_str     0x0000000000035f5b      0x20e /tmp/cci7VVJQ.debug.temp.o
                                       0x2187 (size before relaxing)
 .debug_str     0x0000000000036169       0xf3 /tmp/ccW1pTsQ.debug.temp.o
                                       0x6455 (size before relaxing)
 .debug_str     0x000000000003625c       0xdc /tmp/cctJtCFO.debug.temp.o
                                       0x5685 (size before relaxing)
 .debug_str     0x0000000000036338       0x51 /tmp/ccxpOjNQ.debug.temp.o
                                       0x1b8b (size before relaxing)
 .debug_str     0x0000000000036389      0x107 /tmp/ccQ7MHpO.debug.temp.o
                                       0x182e (size before relaxing)
 .debug_str     0x0000000000036490       0x5f /tmp/ccw6P6bQ.debug.temp.o
                                       0x5469 (size before relaxing)
 .debug_str     0x00000000000364ef     0x181a build-pinetime-s132/py/nlrx86.o
                                       0x1b45 (size before relaxing)
 .debug_str     0x0000000000037d09       0x12 build-pinetime-s132/py/nlrx64.o
                                       0x1b45 (size before relaxing)
 .debug_str     0x0000000000037d1b       0x3d build-pinetime-s132/py/nlrthumb.o
                                       0x1b70 (size before relaxing)
 .debug_str     0x0000000000037d58       0x16 build-pinetime-s132/py/nlrpowerpc.o
                                       0x1b49 (size before relaxing)
 .debug_str     0x0000000000037d6e       0x15 build-pinetime-s132/py/nlrxtensa.o
                                       0x1b48 (size before relaxing)
 .debug_str     0x0000000000037d83       0x15 build-pinetime-s132/py/nlrsetjmp.o
                                       0x1b48 (size before relaxing)

.comment        0x0000000000000000       0x79
 .comment       0x0000000000000000       0x7a /tmp/firmware.elf.fkNs2M.ltrans0.ltrans.o
 .comment       0x0000000000000000       0x7a /tmp/firmware.elf.fkNs2M.ltrans1.ltrans.o
 .comment       0x0000000000000000       0x7a /tmp/firmware.elf.fkNs2M.ltrans2.ltrans.o
 .comment       0x0000000000000000       0x7a /tmp/firmware.elf.fkNs2M.ltrans3.ltrans.o
 .comment       0x0000000000000000       0x7a /tmp/firmware.elf.fkNs2M.ltrans4.ltrans.o
 .comment       0x0000000000000000       0x7a /tmp/firmware.elf.fkNs2M.ltrans5.ltrans.o
 .comment       0x0000000000000000       0x7a /tmp/cc93ME0M.debug.temp.o
 .comment       0x0000000000000000       0x7a /tmp/cce4P40N.debug.temp.o
 .comment       0x0000000000000000       0x7a /tmp/ccUShPpQ.debug.temp.o
 .comment       0x0000000000000000       0x7a /tmp/cceFSu6P.debug.temp.o
 .comment       0x0000000000000000       0x7a /tmp/ccdzT4VM.debug.temp.o
 .comment       0x0000000000000000       0x7a /tmp/ccNViw3Q.debug.temp.o
 .comment       0x0000000000000000       0x7a /tmp/ccaeSOVO.debug.temp.o
 .comment       0x0000000000000000       0x7a /tmp/ccKvZ7vP.debug.temp.o
 .comment       0x0000000000000000       0x7a /tmp/ccICjyfQ.debug.temp.o
 .comment       0x0000000000000000       0x7a /tmp/ccn2vtnQ.debug.temp.o
 .comment       0x0000000000000000       0x7a /tmp/ccjVtRPQ.debug.temp.o
 .comment       0x0000000000000000       0x7a /tmp/ccDq2BXN.debug.temp.o
 .comment       0x0000000000000000       0x7a /tmp/cciUpSSM.debug.temp.o
 .comment       0x0000000000000000       0x7a /tmp/ccZn2DtO.debug.temp.o
 .comment       0x0000000000000000       0x7a /tmp/ccmIpRtR.debug.temp.o
 .comment       0x0000000000000000       0x7a /tmp/ccP2KyrR.debug.temp.o
 .comment       0x0000000000000000       0x7a /tmp/ccv6jvYM.debug.temp.o
 .comment       0x0000000000000000       0x7a /tmp/cceQx5jN.debug.temp.o
 .comment       0x0000000000000000       0x7a /tmp/cc28lXzN.debug.temp.o
 .comment       0x0000000000000000       0x7a /tmp/ccZ3gIEQ.debug.temp.o
 .comment       0x0000000000000000       0x7a /tmp/ccjCKAPP.debug.temp.o
 .comment       0x0000000000000000       0x7a /tmp/cc4FifzO.debug.temp.o
 .comment       0x0000000000000000       0x7a /tmp/ccnVoEHP.debug.temp.o
 .comment       0x0000000000000000       0x7a /tmp/ccx7QyUQ.debug.temp.o
 .comment       0x0000000000000000       0x7a /tmp/ccpng4nR.debug.temp.o
 .comment       0x0000000000000000       0x7a /tmp/cc3Z3kZO.debug.temp.o
 .comment       0x0000000000000000       0x7a /tmp/ccc6wqHO.debug.temp.o
 .comment       0x0000000000000000       0x7a /tmp/ccOHxoqO.debug.temp.o
 .comment       0x0000000000000000       0x7a /tmp/cc1LyLhP.debug.temp.o
 .comment       0x0000000000000000       0x7a /tmp/ccDU7MoN.debug.temp.o
 .comment       0x0000000000000000       0x7a /tmp/cc0B9mKN.debug.temp.o
 .comment       0x0000000000000000       0x7a /tmp/ccuSjZDO.debug.temp.o
 .comment       0x0000000000000000       0x7a /tmp/cckn69GQ.debug.temp.o
 .comment       0x0000000000000000       0x7a /tmp/ccxjmsBQ.debug.temp.o
 .comment       0x0000000000000000       0x7a /tmp/ccDNtTuO.debug.temp.o
 .comment       0x0000000000000000       0x7a /tmp/ccv54H7M.debug.temp.o
 .comment       0x0000000000000000       0x7a /tmp/ccmUAT5N.debug.temp.o
 .comment       0x0000000000000000       0x7a /tmp/ccy8zpVP.debug.temp.o
 .comment       0x0000000000000000       0x7a /tmp/ccHUzH7M.debug.temp.o
 .comment       0x0000000000000000       0x7a /tmp/ccUada5O.debug.temp.o
 .comment       0x0000000000000000       0x7a /tmp/ccPnOOEQ.debug.temp.o
 .comment       0x0000000000000000       0x7a /tmp/ccw9RqrO.debug.temp.o
 .comment       0x0000000000000000       0x7a /tmp/ccipaprO.debug.temp.o
 .comment       0x0000000000000000       0x7a /tmp/ccaKT8oO.debug.temp.o
 .comment       0x0000000000000000       0x7a /tmp/ccT4y8hN.debug.temp.o
 .comment       0x0000000000000000       0x7a /tmp/ccqme5fQ.debug.temp.o
 .comment       0x0000000000000000       0x7a /tmp/ccYYwCaO.debug.temp.o
 .comment       0x0000000000000000       0x7a /tmp/ccQwFyWM.debug.temp.o
 .comment       0x0000000000000000       0x7a /tmp/ccdyEzJQ.debug.temp.o
 .comment       0x0000000000000000       0x7a /tmp/ccYcJ1uO.debug.temp.o
 .comment       0x0000000000000000       0x7a /tmp/ccwj3EXM.debug.temp.o
 .comment       0x0000000000000000       0x7a /tmp/ccJaTFqR.debug.temp.o
 .comment       0x0000000000000000       0x7a /tmp/ccjWW6jP.debug.temp.o
 .comment       0x0000000000000000       0x7a /tmp/ccaW2ebN.debug.temp.o
 .comment       0x0000000000000000       0x7a /tmp/ccAVqDDN.debug.temp.o
 .comment       0x0000000000000000       0x7a /tmp/ccwPhI8O.debug.temp.o
 .comment       0x0000000000000000       0x7a /tmp/cc1J15UO.debug.temp.o
 .comment       0x0000000000000000       0x7a /tmp/cc1RzNSO.debug.temp.o
 .comment       0x0000000000000000       0x7a /tmp/cc0hh2tR.debug.temp.o
 .comment       0x0000000000000000       0x7a /tmp/cc4iH1VN.debug.temp.o
 .comment       0x0000000000000000       0x7a /tmp/ccKPVk0P.debug.temp.o
 .comment       0x0000000000000000       0x7a /tmp/cce9YhTM.debug.temp.o
 .comment       0x0000000000000000       0x7a /tmp/cc3e7NcQ.debug.temp.o
 .comment       0x0000000000000000       0x7a /tmp/ccCXvMcQ.debug.temp.o
 .comment       0x0000000000000000       0x7a /tmp/cckMcd6N.debug.temp.o
 .comment       0x0000000000000000       0x7a /tmp/ccIp6pbN.debug.temp.o
 .comment       0x0000000000000000       0x7a /tmp/ccidzDqO.debug.temp.o
 .comment       0x0000000000000000       0x7a /tmp/cc6efsOO.debug.temp.o
 .comment       0x0000000000000000       0x7a /tmp/ccXQU4lO.debug.temp.o
 .comment       0x0000000000000000       0x7a /tmp/ccXif2FN.debug.temp.o
 .comment       0x0000000000000000       0x7a /tmp/ccS27wDP.debug.temp.o
 .comment       0x0000000000000000       0x7a /tmp/ccNpM16P.debug.temp.o
 .comment       0x0000000000000000       0x7a /tmp/ccTAPjjN.debug.temp.o
 .comment       0x0000000000000000       0x7a /tmp/cc1vPN6M.debug.temp.o
 .comment       0x0000000000000000       0x7a /tmp/ccOCKUBO.debug.temp.o
 .comment       0x0000000000000000       0x7a /tmp/ccVOOObQ.debug.temp.o
 .comment       0x0000000000000000       0x7a /tmp/ccRyGcYP.debug.temp.o
 .comment       0x0000000000000000       0x7a /tmp/ccAHAs0P.debug.temp.o
 .comment       0x0000000000000000       0x7a /tmp/cczhehoQ.debug.temp.o
 .comment       0x0000000000000000       0x7a /tmp/ccug3Y4P.debug.temp.o
 .comment       0x0000000000000000       0x7a /tmp/ccD7AYUN.debug.temp.o
 .comment       0x0000000000000000       0x7a /tmp/ccVuAxUM.debug.temp.o
 .comment       0x0000000000000000       0x7a /tmp/cc5QxV9Q.debug.temp.o
 .comment       0x0000000000000000       0x7a /tmp/ccth2sNO.debug.temp.o
 .comment       0x0000000000000000       0x7a /tmp/ccoslknO.debug.temp.o
 .comment       0x0000000000000000       0x7a /tmp/ccwx3yYQ.debug.temp.o
 .comment       0x0000000000000000       0x7a /tmp/ccMROwiQ.debug.temp.o
 .comment       0x0000000000000000       0x7a /tmp/ccL5l9PP.debug.temp.o
 .comment       0x0000000000000000       0x7a /tmp/cccrSAVM.debug.temp.o
 .comment       0x0000000000000000       0x7a /tmp/cc8xmSIO.debug.temp.o
 .comment       0x0000000000000000       0x7a /tmp/cc7VHQ0N.debug.temp.o
 .comment       0x0000000000000000       0x7a /tmp/cc16sUoR.debug.temp.o
 .comment       0x0000000000000000       0x7a /tmp/cctE6zkP.debug.temp.o
 .comment       0x0000000000000000       0x7a /tmp/cc1oHAkP.debug.temp.o
 .comment       0x0000000000000000       0x7a /tmp/ccKnhw8P.debug.temp.o
 .comment       0x0000000000000000       0x7a /tmp/cc5X5dPP.debug.temp.o
 .comment       0x0000000000000000       0x7a /tmp/cczm1rvO.debug.temp.o
 .comment       0x0000000000000000       0x7a /tmp/ccW9YBSP.debug.temp.o
 .comment       0x0000000000000000       0x7a /tmp/cc6VMd1O.debug.temp.o
 .comment       0x0000000000000000       0x7a /tmp/ccPWQ7vN.debug.temp.o
 .comment       0x0000000000000000       0x7a /tmp/ccypQDAN.debug.temp.o
 .comment       0x0000000000000000       0x7a /tmp/ccKxur6N.debug.temp.o
 .comment       0x0000000000000000       0x7a /tmp/ccPs46iR.debug.temp.o
 .comment       0x0000000000000000       0x7a /tmp/ccr7Z6RO.debug.temp.o
 .comment       0x0000000000000000       0x7a /tmp/cciyPruR.debug.temp.o
 .comment       0x0000000000000000       0x7a /tmp/ccwuuBFO.debug.temp.o
 .comment       0x0000000000000000       0x7a /tmp/ccpNQIiN.debug.temp.o
 .comment       0x0000000000000000       0x7a /tmp/ccdHWoPP.debug.temp.o
 .comment       0x0000000000000000       0x7a /tmp/ccRdgplO.debug.temp.o
 .comment       0x0000000000000000       0x7a /tmp/ccuY66MP.debug.temp.o
 .comment       0x0000000000000000       0x7a /tmp/cc6kuLSP.debug.temp.o
 .comment       0x0000000000000000       0x7a /tmp/ccvR7UzQ.debug.temp.o
 .comment       0x0000000000000000       0x7a /tmp/ccPM3KyQ.debug.temp.o
 .comment       0x0000000000000000       0x7a /tmp/ccwgpoMQ.debug.temp.o
 .comment       0x0000000000000000       0x7a /tmp/ccyU1gXP.debug.temp.o
 .comment       0x0000000000000000       0x7a /tmp/ccBDI6dN.debug.temp.o
 .comment       0x0000000000000000       0x7a /tmp/ccj5fwyN.debug.temp.o
 .comment       0x0000000000000000       0x7a /tmp/ccNESa8O.debug.temp.o
 .comment       0x0000000000000000       0x7a /tmp/cc7zVLZN.debug.temp.o
 .comment       0x0000000000000000       0x7a /tmp/ccALQBuR.debug.temp.o
 .comment       0x0000000000000000       0x7a /tmp/ccfV09NP.debug.temp.o
 .comment       0x0000000000000000       0x7a /tmp/ccfPKSmP.debug.temp.o
 .comment       0x0000000000000000       0x7a /tmp/ccNugVSN.debug.temp.o
 .comment       0x0000000000000000       0x7a /tmp/ccpRD0ZN.debug.temp.o
 .comment       0x0000000000000000       0x7a /tmp/ccedRtwN.debug.temp.o
 .comment       0x0000000000000000       0x7a /tmp/ccGwJxvQ.debug.temp.o
 .comment       0x0000000000000000       0x7a /tmp/ccXq4xgN.debug.temp.o
 .comment       0x0000000000000000       0x7a /tmp/ccAtTFNQ.debug.temp.o
 .comment       0x0000000000000000       0x7a /tmp/cc06OU7N.debug.temp.o
 .comment       0x0000000000000000       0x7a /tmp/ccj5yFtR.debug.temp.o
 .comment       0x0000000000000000       0x7a /tmp/ccuhjPTM.debug.temp.o
 .comment       0x0000000000000000       0x7a /tmp/ccHFr8ZQ.debug.temp.o
 .comment       0x0000000000000000       0x7a /tmp/cc3Ncc7O.debug.temp.o
 .comment       0x0000000000000000       0x7a /tmp/cc7x5gCQ.debug.temp.o
 .comment       0x0000000000000000       0x7a /tmp/ccResWAN.debug.temp.o
 .comment       0x0000000000000000       0x7a /tmp/cc4tSOhQ.debug.temp.o
 .comment       0x0000000000000000       0x7a /tmp/ccpbqx8M.debug.temp.o
 .comment       0x0000000000000000       0x7a /tmp/cctldAmO.debug.temp.o
 .comment       0x0000000000000000       0x7a /tmp/ccf9RJ3O.debug.temp.o
 .comment       0x0000000000000000       0x7a /tmp/ccdE9HHN.debug.temp.o
 .comment       0x0000000000000000       0x7a /tmp/ccI1LqtQ.debug.temp.o
 .comment       0x0000000000000000       0x7a /tmp/ccA9E6eR.debug.temp.o
 .comment       0x0000000000000000       0x7a /tmp/ccgAmPGN.debug.temp.o
 .comment       0x0000000000000000       0x7a /tmp/ccB9OaoR.debug.temp.o
 .comment       0x0000000000000000       0x7a /tmp/ccU4Hp4P.debug.temp.o
 .comment       0x0000000000000000       0x7a /tmp/ccvJdajQ.debug.temp.o
 .comment       0x0000000000000000       0x7a /tmp/cciArTWQ.debug.temp.o
 .comment       0x0000000000000000       0x7a /tmp/ccgRgpqR.debug.temp.o
 .comment       0x0000000000000000       0x7a /tmp/ccz7dJaP.debug.temp.o
 .comment       0x0000000000000000       0x7a /tmp/ccbk495O.debug.temp.o
 .comment       0x0000000000000000       0x7a /tmp/cc8BBNUO.debug.temp.o
 .comment       0x0000000000000000       0x7a /tmp/ccAZ75iQ.debug.temp.o
 .comment       0x0000000000000000       0x7a /tmp/ccxhUVaN.debug.temp.o
 .comment       0x0000000000000000       0x7a /tmp/ccnZejDN.debug.temp.o
 .comment       0x0000000000000000       0x7a /tmp/cc0KeHOP.debug.temp.o
 .comment       0x0000000000000000       0x7a /tmp/cctNpjhO.debug.temp.o
 .comment       0x0000000000000000       0x7a /tmp/ccEcqO4N.debug.temp.o
 .comment       0x0000000000000000       0x7a /tmp/ccXvjJQM.debug.temp.o
 .comment       0x0000000000000000       0x7a /tmp/ccGyCV5N.debug.temp.o
 .comment       0x0000000000000000       0x7a /tmp/cc1a1k4M.debug.temp.o
 .comment       0x0000000000000000       0x7a /tmp/ccOfj2WQ.debug.temp.o
 .comment       0x0000000000000000       0x7a /tmp/ccfVgKtO.debug.temp.o
 .comment       0x0000000000000000       0x7a /tmp/ccmg64uR.debug.temp.o
 .comment       0x0000000000000000       0x7a /tmp/ccuqU33O.debug.temp.o
 .comment       0x0000000000000000       0x7a /tmp/ccawfiAQ.debug.temp.o
 .comment       0x0000000000000000       0x7a /tmp/ccR1dmiO.debug.temp.o
 .comment       0x0000000000000000       0x7a /tmp/cckAj23O.debug.temp.o
 .comment       0x0000000000000000       0x7a /tmp/cc1WLeyO.debug.temp.o
 .comment       0x0000000000000000       0x7a /tmp/ccsbbpwP.debug.temp.o
 .comment       0x0000000000000000       0x7a /tmp/ccBBQ5XQ.debug.temp.o
 .comment       0x0000000000000000       0x7a /tmp/ccgwoJjO.debug.temp.o
 .comment       0x0000000000000000       0x7a /tmp/ccDN8JUN.debug.temp.o
 .comment       0x0000000000000000       0x7a /tmp/cc7bPZgN.debug.temp.o
 .comment       0x0000000000000000       0x7a /tmp/cc47GgZN.debug.temp.o
 .comment       0x0000000000000000       0x7a /tmp/ccOjtzJQ.debug.temp.o
 .comment       0x0000000000000000       0x7a /tmp/ccGrETyP.debug.temp.o
 .comment       0x0000000000000000       0x7a /tmp/cc4Gt1kR.debug.temp.o
 .comment       0x0000000000000000       0x7a /tmp/ccGT1YiP.debug.temp.o
 .comment       0x0000000000000000       0x7a /tmp/ccJFyL3N.debug.temp.o
 .comment       0x0000000000000000       0x7a /tmp/cckPmVlO.debug.temp.o
 .comment       0x0000000000000000       0x7a /tmp/ccJ19WxN.debug.temp.o
 .comment       0x0000000000000000       0x7a /tmp/ccNGoTFN.debug.temp.o
 .comment       0x0000000000000000       0x7a /tmp/cc0uzbvR.debug.temp.o
 .comment       0x0000000000000000       0x7a /tmp/ccMc2upR.debug.temp.o
 .comment       0x0000000000000000       0x7a /tmp/ccT6OGsO.debug.temp.o
 .comment       0x0000000000000000       0x7a /tmp/ccBRuSgN.debug.temp.o
 .comment       0x0000000000000000       0x7a /tmp/cc6JDLzO.debug.temp.o
 .comment       0x0000000000000000       0x7a /tmp/ccymIGRQ.debug.temp.o
 .comment       0x0000000000000000       0x7a /tmp/ccCWJT1Q.debug.temp.o
 .comment       0x0000000000000000       0x7a /tmp/ccA2itiQ.debug.temp.o
 .comment       0x0000000000000000       0x7a /tmp/ccUwCtsN.debug.temp.o
 .comment       0x0000000000000000       0x7a /tmp/ccGSjh5Q.debug.temp.o
 .comment       0x0000000000000000       0x7a /tmp/ccf8ZagQ.debug.temp.o
 .comment       0x0000000000000000       0x7a /tmp/ccqyczSN.debug.temp.o
 .comment       0x0000000000000000       0x7a /tmp/cc74KfzN.debug.temp.o
 .comment       0x0000000000000000       0x7a /tmp/cciAUobN.debug.temp.o
 .comment       0x0000000000000000       0x7a /tmp/ccLPJUaR.debug.temp.o
 .comment       0x0000000000000000       0x7a /tmp/cc1SsG0Q.debug.temp.o
 .comment       0x0000000000000000       0x7a /tmp/cciTjzbQ.debug.temp.o
 .comment       0x0000000000000000       0x7a /tmp/cc9O5q5O.debug.temp.o
 .comment       0x0000000000000000       0x7a /tmp/cc9h465N.debug.temp.o
 .comment       0x0000000000000000       0x7a /tmp/ccu7fsTM.debug.temp.o
 .comment       0x0000000000000000       0x7a /tmp/ccqxcZtQ.debug.temp.o
 .comment       0x0000000000000000       0x7a /tmp/ccrHBPMP.debug.temp.o
 .comment       0x0000000000000000       0x7a /tmp/cc12wz6Q.debug.temp.o
 .comment       0x0000000000000000       0x7a /tmp/ccyrgcuO.debug.temp.o
 .comment       0x0000000000000000       0x7a /tmp/ccf9BdLO.debug.temp.o
 .comment       0x0000000000000000       0x7a /tmp/ccLHJqVO.debug.temp.o
 .comment       0x0000000000000000       0x7a /tmp/ccdHbTLN.debug.temp.o
 .comment       0x0000000000000000       0x7a /tmp/cc1JhZgP.debug.temp.o
 .comment       0x0000000000000000       0x7a /tmp/ccHlW1nN.debug.temp.o
 .comment       0x0000000000000000       0x7a /tmp/cc0yaw1P.debug.temp.o
 .comment       0x0000000000000000       0x7a /tmp/ccqUU94N.debug.temp.o
 .comment       0x0000000000000000       0x7a /tmp/ccXkuJlN.debug.temp.o
 .comment       0x0000000000000000       0x7a /tmp/ccRnRq2M.debug.temp.o
 .comment       0x0000000000000000       0x7a /tmp/ccKcOpSP.debug.temp.o
 .comment       0x0000000000000000       0x7a /tmp/ccb45OQO.debug.temp.o
 .comment       0x0000000000000000       0x7a /tmp/ccbkj4XP.debug.temp.o
 .comment       0x0000000000000000       0x7a /tmp/ccj2WLnR.debug.temp.o
 .comment       0x0000000000000000       0x7a /tmp/ccl2gPpO.debug.temp.o
 .comment       0x0000000000000000       0x7a /tmp/ccIYB5LN.debug.temp.o
 .comment       0x0000000000000000       0x7a /tmp/ccJ59ocR.debug.temp.o
 .comment       0x0000000000000000       0x7a /tmp/cc8aQg6P.debug.temp.o
 .comment       0x0000000000000000       0x7a /tmp/cc54DH6Q.debug.temp.o
 .comment       0x0000000000000000       0x7a /tmp/cckZ5btO.debug.temp.o
 .comment       0x0000000000000000       0x7a /tmp/ccoszf1O.debug.temp.o
 .comment       0x0000000000000000       0x7a /tmp/cco1VkpN.debug.temp.o
 .comment       0x0000000000000000       0x7a /tmp/cciJxS9N.debug.temp.o
 .comment       0x0000000000000000       0x7a /tmp/ccQki8gP.debug.temp.o
 .comment       0x0000000000000000       0x7a /tmp/ccd3yHxO.debug.temp.o
 .comment       0x0000000000000000       0x7a /tmp/ccs6EbKO.debug.temp.o
 .comment       0x0000000000000000       0x7a /tmp/cci7VVJQ.debug.temp.o
 .comment       0x0000000000000000       0x7a /tmp/ccW1pTsQ.debug.temp.o
 .comment       0x0000000000000000       0x7a /tmp/cctJtCFO.debug.temp.o
 .comment       0x0000000000000000       0x7a /tmp/ccxpOjNQ.debug.temp.o
 .comment       0x0000000000000000       0x7a /tmp/ccQ7MHpO.debug.temp.o
 .comment       0x0000000000000000       0x7a /tmp/ccw6P6bQ.debug.temp.o
 .comment       0x0000000000000000       0x79 build-pinetime-s132/py/nlrx86.o
                                         0x7a (size before relaxing)
 .comment       0x0000000000000079       0x7a build-pinetime-s132/py/nlrx64.o
 .comment       0x0000000000000079       0x7a build-pinetime-s132/py/nlrthumb.o
 .comment       0x0000000000000079       0x7a build-pinetime-s132/py/nlrpowerpc.o
 .comment       0x0000000000000079       0x7a build-pinetime-s132/py/nlrxtensa.o
 .comment       0x0000000000000079       0x7a build-pinetime-s132/py/nlrsetjmp.o

.debug_frame    0x0000000000000000     0xa38c
 .debug_frame   0x0000000000000000     0x1ffc /tmp/firmware.elf.fkNs2M.ltrans0.ltrans.o
 .debug_frame   0x0000000000001ffc     0x1850 /tmp/firmware.elf.fkNs2M.ltrans1.ltrans.o
 .debug_frame   0x000000000000384c     0x17b0 /tmp/firmware.elf.fkNs2M.ltrans2.ltrans.o
 .debug_frame   0x0000000000004ffc     0x1a70 /tmp/firmware.elf.fkNs2M.ltrans3.ltrans.o
 .debug_frame   0x0000000000006a6c     0x2008 /tmp/firmware.elf.fkNs2M.ltrans4.ltrans.o
 .debug_frame   0x0000000000008a74     0x17f0 /tmp/firmware.elf.fkNs2M.ltrans5.ltrans.o
 .debug_frame   0x000000000000a264       0x38 build-pinetime-s132/py/nlrthumb.o
 .debug_frame   0x000000000000a29c       0xac /opt/gcc-arm-none-eabi-9-2019-q4-major/bin/../lib/gcc/arm-none-eabi/9.2.1/thumb/v7e-m+fp/hard//libgcc.a(_arm_addsubdf3.o)
 .debug_frame   0x000000000000a348       0x24 /opt/gcc-arm-none-eabi-9-2019-q4-major/bin/../lib/gcc/arm-none-eabi/9.2.1/thumb/v7e-m+fp/hard//libgcc.a(_arm_truncdfsf2.o)
 .debug_frame   0x000000000000a36c       0x20 /opt/gcc-arm-none-eabi-9-2019-q4-major/bin/../lib/gcc/arm-none-eabi/9.2.1/thumb/v7e-m+fp/hard//libgcc.a(_popcountsi2.o)
